ARM GAS  C:\Users\YEHUDA~1\AppData\Local\Temp\ccwwhtCC.s 			page 1


   1              		.syntax unified
   2              		.cpu cortex-m0
   3              		.fpu softvfp
   4              		.eabi_attribute 20, 1
   5              		.eabi_attribute 21, 1
   6              		.eabi_attribute 23, 3
   7              		.eabi_attribute 24, 1
   8              		.eabi_attribute 25, 1
   9              		.eabi_attribute 26, 1
  10              		.eabi_attribute 30, 6
  11              		.eabi_attribute 34, 0
  12              		.eabi_attribute 18, 4
  13              		.thumb
  14              		.syntax unified
  15              		.file	"BLEApplications.c"
  16              		.text
  17              	.Ltext0:
  18              		.cfi_sections	.debug_frame
  19              		.comm	Peer_Addr,7,4
  20              		.comm	rgbHandle,12,4
  21              		.global	ReedSwitchNotifications
  22              		.bss
  23              		.type	ReedSwitchNotifications, %object
  24              		.size	ReedSwitchNotifications, 1
  25              	ReedSwitchNotifications:
  26 0000 00       		.space	1
  27              		.global	updateNotificationCCCAttribute
  28              		.type	updateNotificationCCCAttribute, %object
  29              		.size	updateNotificationCCCAttribute, 1
  30              	updateNotificationCCCAttribute:
  31 0001 00       		.space	1
  32              		.comm	connectionHandle,2,4
  33              		.comm	Addr_arr,7,4
  34              		.comm	Addr_compare,6,4
  35              		.global	CompareResult
  36              		.type	CompareResult, %object
  37              		.size	CompareResult, 1
  38              	CompareResult:
  39 0002 00       		.space	1
  40              		.comm	Peer_Addr1,29,4
  41              		.comm	AddrNibble,1,1
  42              		.comm	MAC_Letters,1,1
  43              		.comm	whitelistdeviceaddress,7,4
  44              		.global	Count
  45              		.type	Count, %object
  46              		.size	Count, 1
  47              	Count:
  48 0003 00       		.space	1
  49              		.comm	readptr,4,4
  50              		.global	byte_count
  51              		.type	byte_count, %object
  52              		.size	byte_count, 1
  53              	byte_count:
  54 0004 00       		.space	1
  55              		.global	MAC_Addr_Flag
  56              		.type	MAC_Addr_Flag, %object
  57              		.size	MAC_Addr_Flag, 1
ARM GAS  C:\Users\YEHUDA~1\AppData\Local\Temp\ccwwhtCC.s 			page 2


  58              	MAC_Addr_Flag:
  59 0005 00       		.space	1
  60              		.global	OK_To_Connect
  61              		.type	OK_To_Connect, %object
  62              		.size	OK_To_Connect, 1
  63              	OK_To_Connect:
  64 0006 00       		.space	1
  65              		.global	User_RST
  66              		.type	User_RST, %object
  67              		.size	User_RST, 1
  68              	User_RST:
  69 0007 00       		.space	1
  70              		.global	Addr_in_flash_flag
  71              		.type	Addr_in_flash_flag, %object
  72              		.size	Addr_in_flash_flag, 1
  73              	Addr_in_flash_flag:
  74 0008 00       		.space	1
  75              		.global	WriteStatus
  76 0009 000000   		.align	2
  77              		.type	WriteStatus, %object
  78              		.size	WriteStatus, 4
  79              	WriteStatus:
  80 000c 00000000 		.space	4
  81              		.global	deviceConnected
  82              		.type	deviceConnected, %object
  83              		.size	deviceConnected, 1
  84              	deviceConnected:
  85 0010 00       		.space	1
  86              		.global	restartAdvertisement
  87              		.type	restartAdvertisement, %object
  88              		.size	restartAdvertisement, 1
  89              	restartAdvertisement:
  90 0011 00       		.space	1
  91              		.comm	password,4,4
  92              		.comm	pass,2,4
  93 0012 0000     		.align	2
  94              	readHandle:
  95 0014 00000000 		.space	12
  95      00000000 
  95      00000000 
  96              		.data
  97              		.type	isConnectionUpdateRequested, %object
  98              		.size	isConnectionUpdateRequested, 1
  99              	isConnectionUpdateRequested:
 100 0000 01       		.byte	1
 101 0001 000000   		.align	2
 102              		.type	ConnectionParam, %object
 103              		.size	ConnectionParam, 8
 104              	ConnectionParam:
 105 0004 6400     		.short	100
 106 0006 6E00     		.short	110
 107 0008 0000     		.short	0
 108 000a C800     		.short	200
 109              		.section	.rodata
 110              		.align	2
 111              	.LC7:
 112 0000 54686520 		.ascii	"The value of the password[o] is %x\012\015\000"
ARM GAS  C:\Users\YEHUDA~1\AppData\Local\Temp\ccwwhtCC.s 			page 3


 112      76616C75 
 112      65206F66 
 112      20746865 
 112      20706173 
 113 0025 000000   		.align	2
 114              	.LC9:
 115 0028 54686520 		.ascii	"The value of the password[1] is %x\012\015\000"
 115      76616C75 
 115      65206F66 
 115      20746865 
 115      20706173 
 116              		.section	.text.CustomEventHandler,"ax",%progbits
 117              		.align	2
 118              		.global	CustomEventHandler
 119              		.code	16
 120              		.thumb_func
 121              		.type	CustomEventHandler, %function
 122              	CustomEventHandler:
 123              	.LFB35:
 124              		.file 1 "BLEApplications.c"
   1:BLEApplications.c **** /* ========================================
   2:BLEApplications.c ****  * Written by Yehuda Ben Chaim
   3:BLEApplications.c ****  * 06/2018 Israel
   4:BLEApplications.c ****  * All Rights Reserved
   5:BLEApplications.c ****  * WW FW Version 1.0.0.0
   6:BLEApplications.c **** 
   7:BLEApplications.c ****  * ========================================
   8:BLEApplications.c **** */
   9:BLEApplications.c **** 
  10:BLEApplications.c **** #include <BLEApplications.h>
  11:BLEApplications.c **** #include "main.h"
  12:BLEApplications.c **** #include <stdbool.h>
  13:BLEApplications.c **** #include <CyFlash.h>
  14:BLEApplications.c **** #include "iprintf.h"
  15:BLEApplications.c **** 
  16:BLEApplications.c **** #define CYREG_SRSS_TST_DDFT_CTRL 0x40030008
  17:BLEApplications.c **** CYBLE_GATT_HANDLE_VALUE_PAIR_T		rgbHandle;	
  18:BLEApplications.c **** uint8 ReedSwitchNotifications = FALSE;	
  19:BLEApplications.c **** uint8 updateNotificationCCCAttribute = FALSE;
  20:BLEApplications.c **** CYBLE_CONN_HANDLE_T  connectionHandle;
  21:BLEApplications.c **** CYBLE_GAP_BD_ADDR_T Peer_Addr;
  22:BLEApplications.c **** uint8 Addr_arr[7];
  23:BLEApplications.c **** uint8 Addr_compare[6];
  24:BLEApplications.c **** uint8 CompareResult = 0;
  25:BLEApplications.c **** CYBLE_GAP_BONDED_DEV_ADDR_LIST_T Peer_Addr1;
  26:BLEApplications.c **** uint8                   AddrNibble;     //Actual value derived from INPUT ASCII value
  27:BLEApplications.c **** uint8                  MAC_Letters;//Character Input from the UART Terminal
  28:BLEApplications.c **** CYBLE_GAP_BD_ADDR_T     whitelistdeviceaddress;
  29:BLEApplications.c **** uint8 Count = 0;        //Count of the Characters from UART while 
  30:BLEApplications.c **** uint8* readptr ;
  31:BLEApplications.c **** uint8 byte_count = 0;
  32:BLEApplications.c **** bool MAC_Addr_Flag = FALSE;
  33:BLEApplications.c **** bool OK_To_Connect = FALSE;
  34:BLEApplications.c **** bool User_RST = FALSE;
  35:BLEApplications.c **** uint8 Addr_in_flash_flag = 0;
  36:BLEApplications.c **** cystatus WriteStatus = CYRET_SUCCESS;
  37:BLEApplications.c **** uint8 deviceConnected = FALSE;
ARM GAS  C:\Users\YEHUDA~1\AppData\Local\Temp\ccwwhtCC.s 			page 4


  38:BLEApplications.c **** uint8 restartAdvertisement = FALSE;
  39:BLEApplications.c **** uint8_t password[4];        //This array is for storing the incoming data from the BLE
  40:BLEApplications.c **** uint8_t pass[2];
  41:BLEApplications.c **** static CYBLE_GATT_HANDLE_VALUE_PAIR_T        readHandle;
  42:BLEApplications.c **** static uint8 isConnectionUpdateRequested = TRUE;
  43:BLEApplications.c **** static CYBLE_GAP_CONN_UPDATE_PARAM_T ConnectionParam =
  44:BLEApplications.c **** {
  45:BLEApplications.c ****     CONN_PARAM_UPDATE_MIN_CONN_INTERVAL,  		      
  46:BLEApplications.c ****     CONN_PARAM_UPDATE_MAX_CONN_INTERVAL,		       
  47:BLEApplications.c ****     CONN_PARAM_UPDATE_SLAVE_LATENCY,			    
  48:BLEApplications.c ****     CONN_PARAM_UPDATE_SUPRV_TIMEOUT 			         	
  49:BLEApplications.c **** };
  50:BLEApplications.c **** 
  51:BLEApplications.c **** void CustomEventHandler(uint32 event, void * eventParam)
  52:BLEApplications.c **** {
 125              		.loc 1 52 0
 126              		.cfi_startproc
 127              		@ args = 0, pretend = 0, frame = 16
 128              		@ frame_needed = 1, uses_anonymous_args = 0
 129 0000 80B5     		push	{r7, lr}
 130              		.cfi_def_cfa_offset 8
 131              		.cfi_offset 7, -8
 132              		.cfi_offset 14, -4
 133 0002 84B0     		sub	sp, sp, #16
 134              		.cfi_def_cfa_offset 24
 135 0004 00AF     		add	r7, sp, #0
 136              		.cfi_def_cfa_register 7
 137 0006 7860     		str	r0, [r7, #4]
 138 0008 3960     		str	r1, [r7]
  53:BLEApplications.c **** 	CYBLE_GATTS_WRITE_REQ_PARAM_T *wrReqParam;
  54:BLEApplications.c ****    
  55:BLEApplications.c ****     switch(event)
 139              		.loc 1 55 0
 140 000a 7B68     		ldr	r3, [r7, #4]
 141 000c 282B     		cmp	r3, #40
 142 000e 1ED0     		beq	.L3
 143 0010 06D8     		bhi	.L4
 144 0012 262B     		cmp	r3, #38
 145 0014 1FD0     		beq	.L5
 146 0016 00D9     		bls	.LCB22
 147 0018 75E0     		b	.L14	@long jump
 148              	.LCB22:
 149 001a 012B     		cmp	r3, #1
 150 001c 07D0     		beq	.L7
  56:BLEApplications.c ****     {
  57:BLEApplications.c ****         case CYBLE_EVT_STACK_ON:
  58:BLEApplications.c ****             CyBle_GappStartAdvertisement(CYBLE_ADVERTISING_FAST);
  59:BLEApplications.c ****             /* Enable the Skyworks SE2438T PA/LNA */
  60:BLEApplications.c ****             CSD_Write(1);
  61:BLEApplications.c ****             CPS_Write(1);
  62:BLEApplications.c ****              /* Configure the Link Layer to automatically switch PA control pin P3[2] and LNA contr
  63:BLEApplications.c ****             CY_SET_XTND_REG32((void CYFAR *)(CYREG_BLE_BLESS_RF_CONFIG), 0x0331);
  64:BLEApplications.c ****             CY_SET_XTND_REG32((void CYFAR *)(CYREG_SRSS_TST_DDFT_CTRL), 0x80000302);
  65:BLEApplications.c ****             /* Start Advertisement and enter Discoverable mode*/
  66:BLEApplications.c **** 			
  67:BLEApplications.c ****                 break;
  68:BLEApplications.c ****         case CYBLE_EVT_GAP_DEVICE_DISCONNECTED:
ARM GAS  C:\Users\YEHUDA~1\AppData\Local\Temp\ccwwhtCC.s 			page 5


  69:BLEApplications.c **** 			/* Start Advertisement and enter Discoverable mode*/
  70:BLEApplications.c **** 			CyBle_GappStartAdvertisement(CYBLE_ADVERTISING_FAST);
  71:BLEApplications.c **** 			break;
  72:BLEApplications.c **** 			
  73:BLEApplications.c **** 		case CYBLE_EVT_GAPP_ADVERTISEMENT_START_STOP:
  74:BLEApplications.c **** 			/* Set the BLE state variable to control LED status */
  75:BLEApplications.c ****             if(CYBLE_STATE_DISCONNECTED == CyBle_GetState())
  76:BLEApplications.c ****             {
  77:BLEApplications.c ****                 /* Start Advertisement and enter Discoverable mode*/
  78:BLEApplications.c ****                 CyBle_GappStartAdvertisement(CYBLE_ADVERTISING_FAST);
  79:BLEApplications.c ****             }
  80:BLEApplications.c **** 			break;
  81:BLEApplications.c **** 			
  82:BLEApplications.c ****         case CYBLE_EVT_GATT_CONNECT_IND:
  83:BLEApplications.c ****             /* This event is received when device is connected over GATT level */
  84:BLEApplications.c ****             /* Update attribute handle on GATT Connection*/
  85:BLEApplications.c ****             connectionHandle = *(CYBLE_CONN_HANDLE_T *) eventParam;
  86:BLEApplications.c ****             CyBle_GapGetBondedDevicesList(&Peer_Addr1);
  87:BLEApplications.c ****             deviceConnected = TRUE;
  88:BLEApplications.c **** 			break;
  89:BLEApplications.c ****         
  90:BLEApplications.c ****         case CYBLE_EVT_GATT_DISCONNECT_IND:			
  91:BLEApplications.c **** 			/* Reset CapSense notification flag to prevent further notifications
  92:BLEApplications.c **** 			 * being sent to Central device after next connection. */
  93:BLEApplications.c **** 			ReedSwitchNotifications = FALSE;
  94:BLEApplications.c **** 			deviceConnected = FALSE;
  95:BLEApplications.c **** 			/* Reset the CCCD value to disable notifications */
  96:BLEApplications.c **** 			updateNotificationCCCAttribute = TRUE;
  97:BLEApplications.c **** 			
  98:BLEApplications.c **** 			/* Reset the color coordinates */
  99:BLEApplications.c **** 			break; 
 100:BLEApplications.c ****         case CYBLE_EVT_GAP_DEVICE_CONNECTED:
 101:BLEApplications.c ****             
 102:BLEApplications.c ****             break;
 103:BLEApplications.c ****         case CYBLE_EVT_GATTS_WRITE_REQ: 							
 104:BLEApplications.c ****             /* This event is received when Central device sends a Write command 
 105:BLEApplications.c ****              * on an Attribute. 
 106:BLEApplications.c ****              * We first get the attribute handle from the event parameter and 
 107:BLEApplications.c ****              * then try to match that handle with an attribute in the database.
 108:BLEApplications.c ****              */
 109:BLEApplications.c ****             wrReqParam = (CYBLE_GATTS_WRITE_REQ_PARAM_T *) eventParam;
 110:BLEApplications.c ****  
 111:BLEApplications.c **** 
 112:BLEApplications.c **** 			if(CYBLE_WW_SERVICE_INCOMINGDATA_CHAR_HANDLE == wrReqParam->handleValPair.attrHandle )
 113:BLEApplications.c ****            {      
 114:BLEApplications.c ****                password[0] = wrReqParam->handleValPair.value.val[0];
 115:BLEApplications.c ****                password[1] = wrReqParam->handleValPair.value.val[1];
 116:BLEApplications.c ****                 
 117:BLEApplications.c ****                 iprintf("The value of the password[o] is %x\n\r", password[0]);
 118:BLEApplications.c ****                 iprintf("The value of the password[1] is %x\n\r", password[1]);
 119:BLEApplications.c ****            
 120:BLEApplications.c ****                CyBle_GattsWriteAttributeValue(&wrReqParam->handleValPair, ZERO, &cyBle_connHandle, 
 121:BLEApplications.c ****            }
 122:BLEApplications.c **** 			/* ADD_CODE to send the response to the write request received. */
 123:BLEApplications.c **** 			CyBle_GattsWriteRsp(cyBle_connHandle);
 124:BLEApplications.c **** 			
 125:BLEApplications.c **** 			break;
ARM GAS  C:\Users\YEHUDA~1\AppData\Local\Temp\ccwwhtCC.s 			page 6


 126:BLEApplications.c ****             
 127:BLEApplications.c ****             /* Mandatory events to be handled by BLE application code */
 128:BLEApplications.c ****         
 129:BLEApplications.c ****         default:
 130:BLEApplications.c **** 
 131:BLEApplications.c ****        	 	break;
 151              		.loc 1 131 0
 152 001e 75E0     		b	.L11
 153              	.L4:
  55:BLEApplications.c ****     {
 154              		.loc 1 55 0
 155 0020 422B     		cmp	r3, #66
 156 0022 30D0     		beq	.L8
 157 0024 4C2B     		cmp	r3, #76
 158 0026 38D0     		beq	.L9
 159 0028 412B     		cmp	r3, #65
 160 002a 1CD0     		beq	.L10
 161              		.loc 1 131 0
 162 002c 6EE0     		b	.L11
 163              	.L7:
  58:BLEApplications.c ****             /* Enable the Skyworks SE2438T PA/LNA */
 164              		.loc 1 58 0
 165 002e 0020     		movs	r0, #0
 166 0030 FFF7FEFF 		bl	CyBle_GappStartAdvertisement
  60:BLEApplications.c ****             CPS_Write(1);
 167              		.loc 1 60 0
 168 0034 0120     		movs	r0, #1
 169 0036 FFF7FEFF 		bl	CSD_Write
  61:BLEApplications.c ****              /* Configure the Link Layer to automatically switch PA control pin P3[2] and LNA contr
 170              		.loc 1 61 0
 171 003a 0120     		movs	r0, #1
 172 003c FFF7FEFF 		bl	CPS_Write
  63:BLEApplications.c ****             CY_SET_XTND_REG32((void CYFAR *)(CYREG_SRSS_TST_DDFT_CTRL), 0x80000302);
 173              		.loc 1 63 0
 174 0040 344B     		ldr	r3, .L16
 175 0042 354A     		ldr	r2, .L16+4
 176 0044 1A60     		str	r2, [r3]
  64:BLEApplications.c ****             /* Start Advertisement and enter Discoverable mode*/
 177              		.loc 1 64 0
 178 0046 354B     		ldr	r3, .L16+8
 179 0048 354A     		ldr	r2, .L16+12
 180 004a 1A60     		str	r2, [r3]
  67:BLEApplications.c ****         case CYBLE_EVT_GAP_DEVICE_DISCONNECTED:
 181              		.loc 1 67 0
 182 004c 5EE0     		b	.L11
 183              	.L3:
  70:BLEApplications.c **** 			break;
 184              		.loc 1 70 0
 185 004e 0020     		movs	r0, #0
 186 0050 FFF7FEFF 		bl	CyBle_GappStartAdvertisement
  71:BLEApplications.c **** 			
 187              		.loc 1 71 0
 188 0054 5AE0     		b	.L11
 189              	.L5:
  75:BLEApplications.c ****             {
 190              		.loc 1 75 0
 191 0056 334B     		ldr	r3, .L16+16
ARM GAS  C:\Users\YEHUDA~1\AppData\Local\Temp\ccwwhtCC.s 			page 7


 192 0058 1B78     		ldrb	r3, [r3]
 193 005a 042B     		cmp	r3, #4
 194 005c 55D1     		bne	.L15
  78:BLEApplications.c ****             }
 195              		.loc 1 78 0
 196 005e 0020     		movs	r0, #0
 197 0060 FFF7FEFF 		bl	CyBle_GappStartAdvertisement
  80:BLEApplications.c **** 			
 198              		.loc 1 80 0
 199 0064 51E0     		b	.L15
 200              	.L10:
  85:BLEApplications.c ****             CyBle_GapGetBondedDevicesList(&Peer_Addr1);
 201              		.loc 1 85 0
 202 0066 304A     		ldr	r2, .L16+20
 203 0068 3B68     		ldr	r3, [r7]
 204 006a 1000     		movs	r0, r2
 205 006c 1900     		movs	r1, r3
 206 006e 0223     		movs	r3, #2
 207 0070 1A00     		movs	r2, r3
 208 0072 FFF7FEFF 		bl	memcpy
  86:BLEApplications.c ****             deviceConnected = TRUE;
 209              		.loc 1 86 0
 210 0076 2D4B     		ldr	r3, .L16+24
 211 0078 1800     		movs	r0, r3
 212 007a FFF7FEFF 		bl	CyBle_GapGetBondedDevicesList
  87:BLEApplications.c **** 			break;
 213              		.loc 1 87 0
 214 007e 2C4B     		ldr	r3, .L16+28
 215 0080 0122     		movs	r2, #1
 216 0082 1A70     		strb	r2, [r3]
  88:BLEApplications.c ****         
 217              		.loc 1 88 0
 218 0084 42E0     		b	.L11
 219              	.L8:
  93:BLEApplications.c **** 			deviceConnected = FALSE;
 220              		.loc 1 93 0
 221 0086 2B4B     		ldr	r3, .L16+32
 222 0088 0022     		movs	r2, #0
 223 008a 1A70     		strb	r2, [r3]
  94:BLEApplications.c **** 			/* Reset the CCCD value to disable notifications */
 224              		.loc 1 94 0
 225 008c 284B     		ldr	r3, .L16+28
 226 008e 0022     		movs	r2, #0
 227 0090 1A70     		strb	r2, [r3]
  96:BLEApplications.c **** 			
 228              		.loc 1 96 0
 229 0092 294B     		ldr	r3, .L16+36
 230 0094 0122     		movs	r2, #1
 231 0096 1A70     		strb	r2, [r3]
  99:BLEApplications.c ****         case CYBLE_EVT_GAP_DEVICE_CONNECTED:
 232              		.loc 1 99 0
 233 0098 38E0     		b	.L11
 234              	.L9:
 109:BLEApplications.c ****  
 235              		.loc 1 109 0
 236 009a 3B68     		ldr	r3, [r7]
 237 009c FB60     		str	r3, [r7, #12]
ARM GAS  C:\Users\YEHUDA~1\AppData\Local\Temp\ccwwhtCC.s 			page 8


 112:BLEApplications.c ****            {      
 238              		.loc 1 112 0
 239 009e FB68     		ldr	r3, [r7, #12]
 240 00a0 9B89     		ldrh	r3, [r3, #12]
 241 00a2 162B     		cmp	r3, #22
 242 00a4 20D1     		bne	.L13
 114:BLEApplications.c ****                password[1] = wrReqParam->handleValPair.value.val[1];
 243              		.loc 1 114 0
 244 00a6 FB68     		ldr	r3, [r7, #12]
 245 00a8 5B68     		ldr	r3, [r3, #4]
 246 00aa 1A78     		ldrb	r2, [r3]
 247 00ac 234B     		ldr	r3, .L16+40
 248 00ae 1A70     		strb	r2, [r3]
 115:BLEApplications.c ****                 
 249              		.loc 1 115 0
 250 00b0 FB68     		ldr	r3, [r7, #12]
 251 00b2 5B68     		ldr	r3, [r3, #4]
 252 00b4 5A78     		ldrb	r2, [r3, #1]
 253 00b6 214B     		ldr	r3, .L16+40
 254 00b8 5A70     		strb	r2, [r3, #1]
 117:BLEApplications.c ****                 iprintf("The value of the password[1] is %x\n\r", password[1]);
 255              		.loc 1 117 0
 256 00ba 204B     		ldr	r3, .L16+40
 257 00bc 1B78     		ldrb	r3, [r3]
 258 00be 1A00     		movs	r2, r3
 259 00c0 1F4B     		ldr	r3, .L16+44
 260 00c2 1100     		movs	r1, r2
 261 00c4 1800     		movs	r0, r3
 262 00c6 FFF7FEFF 		bl	iprintf
 118:BLEApplications.c ****            
 263              		.loc 1 118 0
 264 00ca 1C4B     		ldr	r3, .L16+40
 265 00cc 5B78     		ldrb	r3, [r3, #1]
 266 00ce 1A00     		movs	r2, r3
 267 00d0 1C4B     		ldr	r3, .L16+48
 268 00d2 1100     		movs	r1, r2
 269 00d4 1800     		movs	r0, r3
 270 00d6 FFF7FEFF 		bl	iprintf
 120:BLEApplications.c ****            }
 271              		.loc 1 120 0
 272 00da FB68     		ldr	r3, [r7, #12]
 273 00dc 181D     		adds	r0, r3, #4
 274 00de 1A4A     		ldr	r2, .L16+52
 275 00e0 4023     		movs	r3, #64
 276 00e2 0021     		movs	r1, #0
 277 00e4 FFF7FEFF 		bl	CyBle_GattsWriteAttributeValue
 278              	.L13:
 123:BLEApplications.c **** 			
 279              		.loc 1 123 0
 280 00e8 174B     		ldr	r3, .L16+52
 281 00ea 1A78     		ldrb	r2, [r3]
 282 00ec 5B78     		ldrb	r3, [r3, #1]
 283 00ee 1B02     		lsls	r3, r3, #8
 284 00f0 1A43     		orrs	r2, r3
 285 00f2 0023     		movs	r3, #0
 286 00f4 1204     		lsls	r2, r2, #16
 287 00f6 120C     		lsrs	r2, r2, #16
ARM GAS  C:\Users\YEHUDA~1\AppData\Local\Temp\ccwwhtCC.s 			page 9


 288 00f8 1B0C     		lsrs	r3, r3, #16
 289 00fa 1B04     		lsls	r3, r3, #16
 290 00fc 1343     		orrs	r3, r2
 291 00fe 1800     		movs	r0, r3
 292 0100 FFF7FEFF 		bl	CyBle_GattsWriteRsp
 125:BLEApplications.c ****             
 293              		.loc 1 125 0
 294 0104 02E0     		b	.L11
 295              	.L14:
 102:BLEApplications.c ****         case CYBLE_EVT_GATTS_WRITE_REQ: 							
 296              		.loc 1 102 0
 297 0106 C046     		nop
 298 0108 00E0     		b	.L11
 299              	.L15:
  80:BLEApplications.c **** 			
 300              		.loc 1 80 0
 301 010a C046     		nop
 302              	.L11:
 132:BLEApplications.c ****     }
 133:BLEApplications.c **** }
 303              		.loc 1 133 0
 304 010c C046     		nop
 305 010e BD46     		mov	sp, r7
 306 0110 04B0     		add	sp, sp, #16
 307              		@ sp needed
 308 0112 80BD     		pop	{r7, pc}
 309              	.L17:
 310              		.align	2
 311              	.L16:
 312 0114 60F02E40 		.word	1076818016
 313 0118 31030000 		.word	817
 314 011c 08000340 		.word	1073938440
 315 0120 02030080 		.word	-2147482878
 316 0124 00000000 		.word	cyBle_state
 317 0128 00000000 		.word	connectionHandle
 318 012c 00000000 		.word	Peer_Addr1
 319 0130 00000000 		.word	deviceConnected
 320 0134 00000000 		.word	ReedSwitchNotifications
 321 0138 00000000 		.word	updateNotificationCCCAttribute
 322 013c 00000000 		.word	password
 323 0140 00000000 		.word	.LC7
 324 0144 28000000 		.word	.LC9
 325 0148 00000000 		.word	cyBle_connHandle
 326              		.cfi_endproc
 327              	.LFE35:
 328              		.size	CustomEventHandler, .-CustomEventHandler
 329              		.section	.text.UpdateNotificationCCCD,"ax",%progbits
 330              		.align	2
 331              		.global	UpdateNotificationCCCD
 332              		.code	16
 333              		.thumb_func
 334              		.type	UpdateNotificationCCCD, %function
 335              	UpdateNotificationCCCD:
 336              	.LFB36:
 134:BLEApplications.c **** 
 135:BLEApplications.c **** 
 136:BLEApplications.c **** /*******************************************************************************
ARM GAS  C:\Users\YEHUDA~1\AppData\Local\Temp\ccwwhtCC.s 			page 10


 137:BLEApplications.c **** * Function Name: UpdateNotificationCCCD
 138:BLEApplications.c **** ********************************************************************************
 139:BLEApplications.c **** * Summary:
 140:BLEApplications.c **** * Update the data handle for notification status and report it to BLE 
 141:BLEApplications.c **** * component so that it can be read by Central device.
 142:BLEApplications.c **** *
 143:BLEApplications.c **** * Parameters:
 144:BLEApplications.c **** *  void
 145:BLEApplications.c **** *
 146:BLEApplications.c **** * Return:
 147:BLEApplications.c **** *  void
 148:BLEApplications.c **** *
 149:BLEApplications.c **** *******************************************************************************/
 150:BLEApplications.c **** void UpdateNotificationCCCD(void)
 151:BLEApplications.c **** {
 337              		.loc 1 151 0
 338              		.cfi_startproc
 339              		@ args = 0, pretend = 0, frame = 16
 340              		@ frame_needed = 1, uses_anonymous_args = 0
 341 0000 80B5     		push	{r7, lr}
 342              		.cfi_def_cfa_offset 8
 343              		.cfi_offset 7, -8
 344              		.cfi_offset 14, -4
 345 0002 84B0     		sub	sp, sp, #16
 346              		.cfi_def_cfa_offset 24
 347 0004 00AF     		add	r7, sp, #0
 348              		.cfi_def_cfa_register 7
 152:BLEApplications.c **** 	/* Handle value to update the CCCD */
 153:BLEApplications.c **** 	CYBLE_GATT_HANDLE_VALUE_PAIR_T NotificationCCCDhandle;
 154:BLEApplications.c **** 	
 155:BLEApplications.c **** 	/* Update notification attribute only when there has been change */
 156:BLEApplications.c **** 	if(updateNotificationCCCAttribute)
 349              		.loc 1 156 0
 350 0006 0E4B     		ldr	r3, .L21
 351 0008 1B78     		ldrb	r3, [r3]
 352 000a 002B     		cmp	r3, #0
 353 000c 13D0     		beq	.L20
 157:BLEApplications.c **** 	{
 158:BLEApplications.c **** 		updateNotificationCCCAttribute = FALSE;
 354              		.loc 1 158 0
 355 000e 0C4B     		ldr	r3, .L21
 356 0010 0022     		movs	r2, #0
 357 0012 1A70     		strb	r2, [r3]
 159:BLEApplications.c **** 	
 160:BLEApplications.c **** 		/* Update CCCD handle with notification status data*/
 161:BLEApplications.c **** 		NotificationCCCDhandle.attrHandle =  CYBLE_WW_SERVICE_OUTGOINGDATA_CLIENT_CHARACTERISTIC_CONFIGUR
 358              		.loc 1 161 0
 359 0014 3B1D     		adds	r3, r7, #4
 360 0016 1A22     		movs	r2, #26
 361 0018 1A81     		strh	r2, [r3, #8]
 162:BLEApplications.c **** 		NotificationCCCDhandle.value.val = &Notification_Data;//CCCDvalue;
 362              		.loc 1 162 0
 363 001a 3B1D     		adds	r3, r7, #4
 364 001c 094A     		ldr	r2, .L21+4
 365 001e 1A60     		str	r2, [r3]
 163:BLEApplications.c **** 		NotificationCCCDhandle.value.len = CCC_DATA_LEN;
 366              		.loc 1 163 0
ARM GAS  C:\Users\YEHUDA~1\AppData\Local\Temp\ccwwhtCC.s 			page 11


 367 0020 3B1D     		adds	r3, r7, #4
 368 0022 0222     		movs	r2, #2
 369 0024 9A80     		strh	r2, [r3, #4]
 164:BLEApplications.c **** 		
 165:BLEApplications.c **** 		/* Report data to BLE component for sending data when read by Central device */
 166:BLEApplications.c **** 		CyBle_GattsWriteAttributeValue(&NotificationCCCDhandle, ZERO, &cyBle_connHandle, CYBLE_GATT_DB_LO
 370              		.loc 1 166 0
 371 0026 084A     		ldr	r2, .L21+8
 372 0028 381D     		adds	r0, r7, #4
 373 002a 0023     		movs	r3, #0
 374 002c 0021     		movs	r1, #0
 375 002e FFF7FEFF 		bl	CyBle_GattsWriteAttributeValue
 167:BLEApplications.c **** 		
 168:BLEApplications.c **** 		/* Register the updated attribute write value to BLE component once before
 169:BLEApplications.c **** 		* updating the next CCCD attribute value */
 170:BLEApplications.c **** 		CyBle_ProcessEvents();
 376              		.loc 1 170 0
 377 0032 FFF7FEFF 		bl	CyBle_ProcessEvents
 378              	.L20:
 171:BLEApplications.c **** 	}	
 172:BLEApplications.c **** }
 379              		.loc 1 172 0
 380 0036 C046     		nop
 381 0038 BD46     		mov	sp, r7
 382 003a 04B0     		add	sp, sp, #16
 383              		@ sp needed
 384 003c 80BD     		pop	{r7, pc}
 385              	.L22:
 386 003e C046     		.align	2
 387              	.L21:
 388 0040 00000000 		.word	updateNotificationCCCAttribute
 389 0044 00000000 		.word	Notification_Data
 390 0048 00000000 		.word	cyBle_connHandle
 391              		.cfi_endproc
 392              	.LFE36:
 393              		.size	UpdateNotificationCCCD, .-UpdateNotificationCCCD
 394              		.section	.text.SendReedSwitchNotification,"ax",%progbits
 395              		.align	2
 396              		.global	SendReedSwitchNotification
 397              		.code	16
 398              		.thumb_func
 399              		.type	SendReedSwitchNotification, %function
 400              	SendReedSwitchNotification:
 401              	.LFB37:
 173:BLEApplications.c **** 
 174:BLEApplications.c **** /*******************************************************************************
 175:BLEApplications.c **** * Function Name: SendReedSwitchNotification
 176:BLEApplications.c **** ********************************************************************************
 177:BLEApplications.c **** * Summary:
 178:BLEApplications.c **** * Send CapSense Slider data as BLE Notifications. This function updates
 179:BLEApplications.c **** * the notification handle with data and triggers the BLE component to send 
 180:BLEApplications.c **** * notification
 181:BLEApplications.c **** *
 182:BLEApplications.c **** * Parameters:
 183:BLEApplications.c **** *  ReedData:	CapSense slider value	
 184:BLEApplications.c **** *
 185:BLEApplications.c **** * Return:
ARM GAS  C:\Users\YEHUDA~1\AppData\Local\Temp\ccwwhtCC.s 			page 12


 186:BLEApplications.c **** *  void
 187:BLEApplications.c **** *
 188:BLEApplications.c **** *******************************************************************************/
 189:BLEApplications.c **** void    SendReedSwitchNotification(uint8 *ReedData)
 190:BLEApplications.c **** {
 402              		.loc 1 190 0
 403              		.cfi_startproc
 404              		@ args = 0, pretend = 0, frame = 24
 405              		@ frame_needed = 1, uses_anonymous_args = 0
 406 0000 80B5     		push	{r7, lr}
 407              		.cfi_def_cfa_offset 8
 408              		.cfi_offset 7, -8
 409              		.cfi_offset 14, -4
 410 0002 86B0     		sub	sp, sp, #24
 411              		.cfi_def_cfa_offset 32
 412 0004 00AF     		add	r7, sp, #0
 413              		.cfi_def_cfa_register 7
 414 0006 7860     		str	r0, [r7, #4]
 191:BLEApplications.c **** 	/* 'ReednotificationHandle' stores CapSense notification data parameters */
 192:BLEApplications.c **** 	CYBLE_GATTS_HANDLE_VALUE_NTF_T		OutgoingNotificationsHandle;	
 193:BLEApplications.c **** 	
 194:BLEApplications.c **** 	/* Update notification handle with CapSense slider data*/
 195:BLEApplications.c **** 	OutgoingNotificationsHandle.attrHandle = CYBLE_WW_SERVICE_CUSTOM_CHARACTERISTIC_CHAR_HANDLE;				
 415              		.loc 1 195 0
 416 0008 0C23     		movs	r3, #12
 417 000a FB18     		adds	r3, r7, r3
 418 000c 1222     		movs	r2, #18
 419 000e 1A81     		strh	r2, [r3, #8]
 196:BLEApplications.c **** 	OutgoingNotificationsHandle.value.val = (void*)ReedData;
 420              		.loc 1 196 0
 421 0010 0C23     		movs	r3, #12
 422 0012 FB18     		adds	r3, r7, r3
 423 0014 7A68     		ldr	r2, [r7, #4]
 424 0016 1A60     		str	r2, [r3]
 197:BLEApplications.c **** 	OutgoingNotificationsHandle.value.len = CHAR_DATA_LEN;
 425              		.loc 1 197 0
 426 0018 0C23     		movs	r3, #12
 427 001a FB18     		adds	r3, r7, r3
 428 001c 0122     		movs	r2, #1
 429 001e 9A80     		strh	r2, [r3, #4]
 198:BLEApplications.c **** 	
 199:BLEApplications.c **** 	/* Send notifications. */
 200:BLEApplications.c **** 	CyBle_GattsNotification(cyBle_connHandle, &OutgoingNotificationsHandle);
 430              		.loc 1 200 0
 431 0020 0C23     		movs	r3, #12
 432 0022 F918     		adds	r1, r7, r3
 433 0024 084B     		ldr	r3, .L24
 434 0026 1A78     		ldrb	r2, [r3]
 435 0028 5B78     		ldrb	r3, [r3, #1]
 436 002a 1B02     		lsls	r3, r3, #8
 437 002c 1A43     		orrs	r2, r3
 438 002e 0023     		movs	r3, #0
 439 0030 1204     		lsls	r2, r2, #16
 440 0032 120C     		lsrs	r2, r2, #16
 441 0034 1B0C     		lsrs	r3, r3, #16
 442 0036 1B04     		lsls	r3, r3, #16
 443 0038 1343     		orrs	r3, r2
ARM GAS  C:\Users\YEHUDA~1\AppData\Local\Temp\ccwwhtCC.s 			page 13


 444 003a 1800     		movs	r0, r3
 445 003c FFF7FEFF 		bl	CyBle_GattsNotification
 201:BLEApplications.c **** }
 446              		.loc 1 201 0
 447 0040 C046     		nop
 448 0042 BD46     		mov	sp, r7
 449 0044 06B0     		add	sp, sp, #24
 450              		@ sp needed
 451 0046 80BD     		pop	{r7, pc}
 452              	.L25:
 453              		.align	2
 454              	.L24:
 455 0048 00000000 		.word	cyBle_connHandle
 456              		.cfi_endproc
 457              	.LFE37:
 458              		.size	SendReedSwitchNotification, .-SendReedSwitchNotification
 459              		.section	.text.UpdateConnectionParam,"ax",%progbits
 460              		.align	2
 461              		.global	UpdateConnectionParam
 462              		.code	16
 463              		.thumb_func
 464              		.type	UpdateConnectionParam, %function
 465              	UpdateConnectionParam:
 466              	.LFB38:
 202:BLEApplications.c **** 
 203:BLEApplications.c **** void UpdateConnectionParam(void)
 204:BLEApplications.c **** {
 467              		.loc 1 204 0
 468              		.cfi_startproc
 469              		@ args = 0, pretend = 0, frame = 0
 470              		@ frame_needed = 1, uses_anonymous_args = 0
 471 0000 80B5     		push	{r7, lr}
 472              		.cfi_def_cfa_offset 8
 473              		.cfi_offset 7, -8
 474              		.cfi_offset 14, -4
 475 0002 00AF     		add	r7, sp, #0
 476              		.cfi_def_cfa_register 7
 205:BLEApplications.c **** 	/* If device is connected and Update connection parameter not updated yet,
 206:BLEApplications.c **** 	* then send the Connection Parameter Update request to Client. */
 207:BLEApplications.c ****     if(deviceConnected && isConnectionUpdateRequested)
 477              		.loc 1 207 0
 478 0004 0A4B     		ldr	r3, .L29
 479 0006 1B78     		ldrb	r3, [r3]
 480 0008 002B     		cmp	r3, #0
 481 000a 0DD0     		beq	.L28
 482              		.loc 1 207 0 is_stmt 0 discriminator 1
 483 000c 094B     		ldr	r3, .L29+4
 484 000e 1B78     		ldrb	r3, [r3]
 485 0010 002B     		cmp	r3, #0
 486 0012 09D0     		beq	.L28
 208:BLEApplications.c **** 	{
 209:BLEApplications.c **** 		/* Reset the flag to indicate that connection Update request has been sent */
 210:BLEApplications.c **** 		isConnectionUpdateRequested = FALSE;
 487              		.loc 1 210 0 is_stmt 1
 488 0014 074B     		ldr	r3, .L29+4
 489 0016 0022     		movs	r2, #0
 490 0018 1A70     		strb	r2, [r3]
ARM GAS  C:\Users\YEHUDA~1\AppData\Local\Temp\ccwwhtCC.s 			page 14


 211:BLEApplications.c **** 		
 212:BLEApplications.c **** 		/* Send Connection Update request with set Parameter */
 213:BLEApplications.c **** 		CyBle_L2capLeConnectionParamUpdateRequest(cyBle_connHandle.bdHandle, &ConnectionParam);
 491              		.loc 1 213 0
 492 001a 074B     		ldr	r3, .L29+8
 493 001c 1B78     		ldrb	r3, [r3]
 494 001e 074A     		ldr	r2, .L29+12
 495 0020 1100     		movs	r1, r2
 496 0022 1800     		movs	r0, r3
 497 0024 FFF7FEFF 		bl	CyBle_L2capLeConnectionParamUpdateRequest
 498              	.L28:
 214:BLEApplications.c **** 	}
 215:BLEApplications.c **** }
 499              		.loc 1 215 0
 500 0028 C046     		nop
 501 002a BD46     		mov	sp, r7
 502              		@ sp needed
 503 002c 80BD     		pop	{r7, pc}
 504              	.L30:
 505 002e C046     		.align	2
 506              	.L29:
 507 0030 00000000 		.word	deviceConnected
 508 0034 00000000 		.word	isConnectionUpdateRequested
 509 0038 00000000 		.word	cyBle_connHandle
 510 003c 04000000 		.word	ConnectionParam
 511              		.cfi_endproc
 512              	.LFE38:
 513              		.size	UpdateConnectionParam, .-UpdateConnectionParam
 514              		.section	.text.Write_pass_to_flash,"ax",%progbits
 515              		.align	2
 516              		.global	Write_pass_to_flash
 517              		.code	16
 518              		.thumb_func
 519              		.type	Write_pass_to_flash, %function
 520              	Write_pass_to_flash:
 521              	.LFB39:
 216:BLEApplications.c **** 
 217:BLEApplications.c **** 
 218:BLEApplications.c **** /*******************************************************************************
 219:BLEApplications.c **** * Function Name: Write_pass_to_flash
 220:BLEApplications.c **** ********************************************************************************
 221:BLEApplications.c **** * Summary:
 222:BLEApplications.c **** * Write the current password to flash and also zeros if the user elapsed the password.
 223:BLEApplications.c **** *
 224:BLEApplications.c **** * Parameters:
 225:BLEApplications.c **** *  None
 226:BLEApplications.c **** *
 227:BLEApplications.c **** * Return:
 228:BLEApplications.c **** *  void
 229:BLEApplications.c **** *******************************************************************************/
 230:BLEApplications.c **** void Write_pass_to_flash()
 231:BLEApplications.c **** {
 522              		.loc 1 231 0
 523              		.cfi_startproc
 524              		@ args = 0, pretend = 0, frame = 0
 525              		@ frame_needed = 1, uses_anonymous_args = 0
 526 0000 80B5     		push	{r7, lr}
ARM GAS  C:\Users\YEHUDA~1\AppData\Local\Temp\ccwwhtCC.s 			page 15


 527              		.cfi_def_cfa_offset 8
 528              		.cfi_offset 7, -8
 529              		.cfi_offset 14, -4
 530 0002 00AF     		add	r7, sp, #0
 531              		.cfi_def_cfa_register 7
 232:BLEApplications.c ****     if(RST_flag)
 532              		.loc 1 232 0
 533 0004 104B     		ldr	r3, .L35
 534 0006 1B78     		ldrb	r3, [r3]
 535 0008 002B     		cmp	r3, #0
 536 000a 09D0     		beq	.L32
 233:BLEApplications.c ****     {
 234:BLEApplications.c ****         //password[0] = 0x00;
 235:BLEApplications.c ****        // password[1] = 0x00;
 236:BLEApplications.c ****         CySysFlashWriteRow(CY_TEST_FLASH_ROW, password); 
 537              		.loc 1 236 0
 538 000c 0F4B     		ldr	r3, .L35+4
 539 000e 104A     		ldr	r2, .L35+8
 540 0010 1900     		movs	r1, r3
 541 0012 1000     		movs	r0, r2
 542 0014 FFF7FEFF 		bl	CySysFlashWriteRow
 237:BLEApplications.c ****         //Update_password(password);
 238:BLEApplications.c ****         RST_flag = FALSE;
 543              		.loc 1 238 0
 544 0018 0B4B     		ldr	r3, .L35
 545 001a 0022     		movs	r2, #0
 546 001c 1A70     		strb	r2, [r3]
 239:BLEApplications.c ****     }
 240:BLEApplications.c ****     else
 241:BLEApplications.c ****     {
 242:BLEApplications.c ****         CySysFlashWriteRow(CY_TEST_FLASH_ROW, password); 
 243:BLEApplications.c ****         pass[0] = (*((uint8 *) (CY_TEST_FLASH_ADDR)));
 244:BLEApplications.c ****         pass[1] = (*((uint8 *) (CY_TEST_FLASH_ADDR + 1)));
 245:BLEApplications.c ****         //Update_password(password);
 246:BLEApplications.c ****         RST_flag = FALSE;
 247:BLEApplications.c ****     }
 248:BLEApplications.c **** }
 547              		.loc 1 248 0
 548 001e 10E0     		b	.L34
 549              	.L32:
 242:BLEApplications.c ****         pass[0] = (*((uint8 *) (CY_TEST_FLASH_ADDR)));
 550              		.loc 1 242 0
 551 0020 0A4B     		ldr	r3, .L35+4
 552 0022 0B4A     		ldr	r2, .L35+8
 553 0024 1900     		movs	r1, r3
 554 0026 1000     		movs	r0, r2
 555 0028 FFF7FEFF 		bl	CySysFlashWriteRow
 243:BLEApplications.c ****         pass[1] = (*((uint8 *) (CY_TEST_FLASH_ADDR + 1)));
 556              		.loc 1 243 0
 557 002c 094B     		ldr	r3, .L35+12
 558 002e 1A78     		ldrb	r2, [r3]
 559 0030 094B     		ldr	r3, .L35+16
 560 0032 1A70     		strb	r2, [r3]
 244:BLEApplications.c ****         //Update_password(password);
 561              		.loc 1 244 0
 562 0034 094B     		ldr	r3, .L35+20
 563 0036 1A78     		ldrb	r2, [r3]
ARM GAS  C:\Users\YEHUDA~1\AppData\Local\Temp\ccwwhtCC.s 			page 16


 564 0038 074B     		ldr	r3, .L35+16
 565 003a 5A70     		strb	r2, [r3, #1]
 246:BLEApplications.c ****     }
 566              		.loc 1 246 0
 567 003c 024B     		ldr	r3, .L35
 568 003e 0022     		movs	r2, #0
 569 0040 1A70     		strb	r2, [r3]
 570              	.L34:
 571              		.loc 1 248 0
 572 0042 C046     		nop
 573 0044 BD46     		mov	sp, r7
 574              		@ sp needed
 575 0046 80BD     		pop	{r7, pc}
 576              	.L36:
 577              		.align	2
 578              	.L35:
 579 0048 00000000 		.word	RST_flag
 580 004c 00000000 		.word	password
 581 0050 FE030000 		.word	1022
 582 0054 00FE0300 		.word	261632
 583 0058 00000000 		.word	pass
 584 005c 01FE0300 		.word	261633
 585              		.cfi_endproc
 586              	.LFE39:
 587              		.size	Write_pass_to_flash, .-Write_pass_to_flash
 588              		.text
 589              	.Letext0:
 590              		.file 2 "c:\\program files (x86)\\cypress\\psoc creator\\4.2\\psoc creator\\import\\gnu\\arm\\5.4.
 591              		.file 3 "c:\\program files (x86)\\cypress\\psoc creator\\4.2\\psoc creator\\import\\gnu\\arm\\5.4.
 592              		.file 4 "Generated_Source\\PSoC4/cytypes.h"
 593              		.file 5 "Generated_Source\\PSoC4/BLE_Stack.h"
 594              		.file 6 "Generated_Source\\PSoC4/BLE_StackGap.h"
 595              		.file 7 "Generated_Source\\PSoC4/BLE_StackGatt.h"
 596              		.file 8 "Generated_Source\\PSoC4/BLE_StackGattServer.h"
 597              		.file 9 "Generated_Source\\PSoC4/BLE_eventHandler.h"
 598              		.file 10 "main.h"