ARM GAS  C:\Users\YEHUDA~1\AppData\Local\Temp\ccUA30iV.s 			page 1


   1              		.syntax unified
   2              		.cpu cortex-m0
   3              		.fpu softvfp
   4              		.eabi_attribute 20, 1
   5              		.eabi_attribute 21, 1
   6              		.eabi_attribute 23, 3
   7              		.eabi_attribute 24, 1
   8              		.eabi_attribute 25, 1
   9              		.eabi_attribute 26, 1
  10              		.eabi_attribute 30, 6
  11              		.eabi_attribute 34, 0
  12              		.eabi_attribute 18, 4
  13              		.thumb
  14              		.syntax unified
  15              		.file	"iprintf.c"
  16              		.text
  17              	.Ltext0:
  18              		.cfi_sections	.debug_frame
  19              		.section	.text.iputc,"ax",%progbits
  20              		.align	2
  21              		.code	16
  22              		.thumb_func
  23              		.type	iputc, %function
  24              	iputc:
  25              	.LFB35:
  26              		.file 1 "iprintf.c"
   1:iprintf.c     **** /******************************************************************************
   2:iprintf.c     **** *This file is for iprintf()
   3:iprintf.c     **** *The iprintf() is a simple printf() and only can print string with %s,%d,%c,%x.
   4:iprintf.c     **** *******************************************************************************/
   5:iprintf.c     **** #include "iprintf.h"
   6:iprintf.c     **** 
   7:iprintf.c     **** static void iputc(char8 ch)
   8:iprintf.c     **** {
  27              		.loc 1 8 0
  28              		.cfi_startproc
  29              		@ args = 0, pretend = 0, frame = 8
  30              		@ frame_needed = 1, uses_anonymous_args = 0
  31 0000 80B5     		push	{r7, lr}
  32              		.cfi_def_cfa_offset 8
  33              		.cfi_offset 7, -8
  34              		.cfi_offset 14, -4
  35 0002 82B0     		sub	sp, sp, #8
  36              		.cfi_def_cfa_offset 16
  37 0004 00AF     		add	r7, sp, #0
  38              		.cfi_def_cfa_register 7
  39 0006 0200     		movs	r2, r0
  40 0008 FB1D     		adds	r3, r7, #7
  41 000a 1A70     		strb	r2, [r3]
   9:iprintf.c     **** 	/*This function has to be replaced by user*/	
  10:iprintf.c     **** 	SCB_1_UartPutChar(ch);
  42              		.loc 1 10 0
  43 000c FB1D     		adds	r3, r7, #7
  44 000e 1B78     		ldrb	r3, [r3]
  45 0010 1800     		movs	r0, r3
  46 0012 FFF7FEFF 		bl	SCB_1_SpiUartWriteTxData
  11:iprintf.c     **** }
ARM GAS  C:\Users\YEHUDA~1\AppData\Local\Temp\ccUA30iV.s 			page 2


  47              		.loc 1 11 0
  48 0016 C046     		nop
  49 0018 BD46     		mov	sp, r7
  50 001a 02B0     		add	sp, sp, #8
  51              		@ sp needed
  52 001c 80BD     		pop	{r7, pc}
  53              		.cfi_endproc
  54              	.LFE35:
  55              		.size	iputc, .-iputc
  56 001e C046     		.section	.rodata
  57              		.align	2
  58              	.LC0:
  59 0000 30313233 		.ascii	"0123456789abcdef\000"
  59      34353637 
  59      38396162 
  59      63646566 
  59      00
  60              		.section	.text.change,"ax",%progbits
  61              		.align	2
  62              		.code	16
  63              		.thumb_func
  64              		.type	change, %function
  65              	change:
  66              	.LFB36:
  12:iprintf.c     **** 
  13:iprintf.c     **** static uint8* change(uint32 Index)
  14:iprintf.c     **** {
  67              		.loc 1 14 0
  68              		.cfi_startproc
  69              		@ args = 0, pretend = 0, frame = 8
  70              		@ frame_needed = 1, uses_anonymous_args = 0
  71 0000 80B5     		push	{r7, lr}
  72              		.cfi_def_cfa_offset 8
  73              		.cfi_offset 7, -8
  74              		.cfi_offset 14, -4
  75 0002 82B0     		sub	sp, sp, #8
  76              		.cfi_def_cfa_offset 16
  77 0004 00AF     		add	r7, sp, #0
  78              		.cfi_def_cfa_register 7
  79 0006 7860     		str	r0, [r7, #4]
  15:iprintf.c     ****     return (uint8*)("0123456789abcdef"+Index);
  80              		.loc 1 15 0
  81 0008 7A68     		ldr	r2, [r7, #4]
  82 000a 034B     		ldr	r3, .L4
  83 000c D318     		adds	r3, r2, r3
  16:iprintf.c     **** }
  84              		.loc 1 16 0
  85 000e 1800     		movs	r0, r3
  86 0010 BD46     		mov	sp, r7
  87 0012 02B0     		add	sp, sp, #8
  88              		@ sp needed
  89 0014 80BD     		pop	{r7, pc}
  90              	.L5:
  91 0016 C046     		.align	2
  92              	.L4:
  93 0018 00000000 		.word	.LC0
  94              		.cfi_endproc
ARM GAS  C:\Users\YEHUDA~1\AppData\Local\Temp\ccUA30iV.s 			page 3


  95              	.LFE36:
  96              		.size	change, .-change
  97              		.global	__aeabi_uidivmod
  98              		.global	__aeabi_uidiv
  99              		.section	.text.iprintf,"ax",%progbits
 100              		.align	2
 101              		.global	iprintf
 102              		.code	16
 103              		.thumb_func
 104              		.type	iprintf, %function
 105              	iprintf:
 106              	.LFB37:
  17:iprintf.c     **** 
  18:iprintf.c     **** 
  19:iprintf.c     **** void iprintf(char8 *pszFmt,...)
  20:iprintf.c     **** {
 107              		.loc 1 20 0
 108              		.cfi_startproc
 109              		@ args = 4, pretend = 16, frame = 80
 110              		@ frame_needed = 1, uses_anonymous_args = 1
 111 0000 0FB4     		push	{r0, r1, r2, r3}
 112              		.cfi_def_cfa_offset 16
 113 0002 90B5     		push	{r4, r7, lr}
 114              		.cfi_def_cfa_offset 28
 115              		.cfi_offset 4, -28
 116              		.cfi_offset 7, -24
 117              		.cfi_offset 14, -20
 118 0004 95B0     		sub	sp, sp, #84
 119              		.cfi_def_cfa_offset 112
 120 0006 00AF     		add	r7, sp, #0
 121              		.cfi_def_cfa_register 7
  21:iprintf.c     ****     uint8 *pszVal;
  22:iprintf.c     ****     uint32 iVal, xVal, i = 0, buffer[12], index = 1;
 122              		.loc 1 22 0
 123 0008 0023     		movs	r3, #0
 124 000a 3B64     		str	r3, [r7, #64]
 125 000c 0123     		movs	r3, #1
 126 000e FB63     		str	r3, [r7, #60]
  23:iprintf.c     ****     uint8 cVal;
  24:iprintf.c     ****     uint32 *pArg;
  25:iprintf.c     ****     pArg =(uint32 *)&pszFmt;
 127              		.loc 1 25 0
 128 0010 6023     		movs	r3, #96
 129 0012 FB18     		adds	r3, r7, r3
 130 0014 BB63     		str	r3, [r7, #56]
  26:iprintf.c     **** 
  27:iprintf.c     ****     while(*pszFmt)
 131              		.loc 1 27 0
 132 0016 CCE0     		b	.L7
 133              	.L24:
  28:iprintf.c     ****     {
  29:iprintf.c     ****         if('%' != *pszFmt)
 134              		.loc 1 29 0
 135 0018 3B6E     		ldr	r3, [r7, #96]
 136 001a 1B78     		ldrb	r3, [r3]
 137 001c 252B     		cmp	r3, #37
 138 001e 08D0     		beq	.L8
ARM GAS  C:\Users\YEHUDA~1\AppData\Local\Temp\ccUA30iV.s 			page 4


  30:iprintf.c     ****         {
  31:iprintf.c     ****             iputc(*pszFmt);
 139              		.loc 1 31 0
 140 0020 3B6E     		ldr	r3, [r7, #96]
 141 0022 1B78     		ldrb	r3, [r3]
 142 0024 1800     		movs	r0, r3
 143 0026 FFF7FEFF 		bl	iputc
  32:iprintf.c     ****             pszFmt++;
 144              		.loc 1 32 0
 145 002a 3B6E     		ldr	r3, [r7, #96]
 146 002c 0133     		adds	r3, r3, #1
 147 002e 3B66     		str	r3, [r7, #96]
  33:iprintf.c     ****             continue;
 148              		.loc 1 33 0
 149 0030 BFE0     		b	.L7
 150              	.L8:
  34:iprintf.c     ****         }
  35:iprintf.c     ****         pszFmt++;
 151              		.loc 1 35 0
 152 0032 3B6E     		ldr	r3, [r7, #96]
 153 0034 0133     		adds	r3, r3, #1
 154 0036 3B66     		str	r3, [r7, #96]
  36:iprintf.c     **** 
  37:iprintf.c     ****         if(*pszFmt == 's')
 155              		.loc 1 37 0
 156 0038 3B6E     		ldr	r3, [r7, #96]
 157 003a 1B78     		ldrb	r3, [r3]
 158 003c 732B     		cmp	r3, #115
 159 003e 18D1     		bne	.L9
  38:iprintf.c     ****         {
  39:iprintf.c     ****             pszVal = (uint8*)pArg[index++];
 160              		.loc 1 39 0
 161 0040 FB6B     		ldr	r3, [r7, #60]
 162 0042 5A1C     		adds	r2, r3, #1
 163 0044 FA63     		str	r2, [r7, #60]
 164 0046 9B00     		lsls	r3, r3, #2
 165 0048 BA6B     		ldr	r2, [r7, #56]
 166 004a D318     		adds	r3, r2, r3
 167 004c 1B68     		ldr	r3, [r3]
 168 004e FB64     		str	r3, [r7, #76]
  40:iprintf.c     ****             for(; *pszVal != '\0'; pszVal++)
 169              		.loc 1 40 0
 170 0050 07E0     		b	.L10
 171              	.L11:
  41:iprintf.c     ****                 iputc(*pszVal);
 172              		.loc 1 41 0 discriminator 2
 173 0052 FB6C     		ldr	r3, [r7, #76]
 174 0054 1B78     		ldrb	r3, [r3]
 175 0056 1800     		movs	r0, r3
 176 0058 FFF7FEFF 		bl	iputc
  40:iprintf.c     ****             for(; *pszVal != '\0'; pszVal++)
 177              		.loc 1 40 0 discriminator 2
 178 005c FB6C     		ldr	r3, [r7, #76]
 179 005e 0133     		adds	r3, r3, #1
 180 0060 FB64     		str	r3, [r7, #76]
 181              	.L10:
  40:iprintf.c     ****             for(; *pszVal != '\0'; pszVal++)
ARM GAS  C:\Users\YEHUDA~1\AppData\Local\Temp\ccUA30iV.s 			page 5


 182              		.loc 1 40 0 is_stmt 0 discriminator 1
 183 0062 FB6C     		ldr	r3, [r7, #76]
 184 0064 1B78     		ldrb	r3, [r3]
 185 0066 002B     		cmp	r3, #0
 186 0068 F3D1     		bne	.L11
  42:iprintf.c     ****             pszFmt++;
 187              		.loc 1 42 0 is_stmt 1
 188 006a 3B6E     		ldr	r3, [r7, #96]
 189 006c 0133     		adds	r3, r3, #1
 190 006e 3B66     		str	r3, [r7, #96]
  43:iprintf.c     ****             continue;
 191              		.loc 1 43 0
 192 0070 9FE0     		b	.L7
 193              	.L9:
  44:iprintf.c     ****         }
  45:iprintf.c     ****         if(*pszFmt == 'd')
 194              		.loc 1 45 0
 195 0072 3B6E     		ldr	r3, [r7, #96]
 196 0074 1B78     		ldrb	r3, [r3]
 197 0076 642B     		cmp	r3, #100
 198 0078 37D1     		bne	.L12
  46:iprintf.c     ****         {
  47:iprintf.c     ****             iVal = pArg[index++];
 199              		.loc 1 47 0
 200 007a FB6B     		ldr	r3, [r7, #60]
 201 007c 5A1C     		adds	r2, r3, #1
 202 007e FA63     		str	r2, [r7, #60]
 203 0080 9B00     		lsls	r3, r3, #2
 204 0082 BA6B     		ldr	r2, [r7, #56]
 205 0084 D318     		adds	r3, r2, r3
 206 0086 1B68     		ldr	r3, [r3]
 207 0088 BB64     		str	r3, [r7, #72]
  48:iprintf.c     ****             i = 0;
 208              		.loc 1 48 0
 209 008a 0023     		movs	r3, #0
 210 008c 3B64     		str	r3, [r7, #64]
 211              	.L13:
  49:iprintf.c     ****             do{
  50:iprintf.c     ****                 buffer[i++] = iVal % 10;
 212              		.loc 1 50 0 discriminator 1
 213 008e 3C6C     		ldr	r4, [r7, #64]
 214 0090 631C     		adds	r3, r4, #1
 215 0092 3B64     		str	r3, [r7, #64]
 216 0094 BB6C     		ldr	r3, [r7, #72]
 217 0096 0A21     		movs	r1, #10
 218 0098 1800     		movs	r0, r3
 219 009a FFF7FEFF 		bl	__aeabi_uidivmod
 220 009e 0B00     		movs	r3, r1
 221 00a0 1900     		movs	r1, r3
 222 00a2 3B1D     		adds	r3, r7, #4
 223 00a4 A200     		lsls	r2, r4, #2
 224 00a6 D150     		str	r1, [r2, r3]
  51:iprintf.c     ****                 iVal /= 10;
 225              		.loc 1 51 0 discriminator 1
 226 00a8 BB6C     		ldr	r3, [r7, #72]
 227 00aa 0A21     		movs	r1, #10
 228 00ac 1800     		movs	r0, r3
ARM GAS  C:\Users\YEHUDA~1\AppData\Local\Temp\ccUA30iV.s 			page 6


 229 00ae FFF7FEFF 		bl	__aeabi_uidiv
 230 00b2 0300     		movs	r3, r0
 231 00b4 BB64     		str	r3, [r7, #72]
  52:iprintf.c     ****             }while(iVal);
 232              		.loc 1 52 0 discriminator 1
 233 00b6 BB6C     		ldr	r3, [r7, #72]
 234 00b8 002B     		cmp	r3, #0
 235 00ba E8D1     		bne	.L13
  53:iprintf.c     ****             while(i > 0)
 236              		.loc 1 53 0
 237 00bc 0EE0     		b	.L14
 238              	.L15:
  54:iprintf.c     ****             {
  55:iprintf.c     ****                 i--;
 239              		.loc 1 55 0
 240 00be 3B6C     		ldr	r3, [r7, #64]
 241 00c0 013B     		subs	r3, r3, #1
 242 00c2 3B64     		str	r3, [r7, #64]
  56:iprintf.c     ****                 iputc(*change(buffer[i]));
 243              		.loc 1 56 0
 244 00c4 3B1D     		adds	r3, r7, #4
 245 00c6 3A6C     		ldr	r2, [r7, #64]
 246 00c8 9200     		lsls	r2, r2, #2
 247 00ca D358     		ldr	r3, [r2, r3]
 248 00cc 1800     		movs	r0, r3
 249 00ce FFF7FEFF 		bl	change
 250 00d2 0300     		movs	r3, r0
 251 00d4 1B78     		ldrb	r3, [r3]
 252 00d6 1800     		movs	r0, r3
 253 00d8 FFF7FEFF 		bl	iputc
 254              	.L14:
  53:iprintf.c     ****             while(i > 0)
 255              		.loc 1 53 0
 256 00dc 3B6C     		ldr	r3, [r7, #64]
 257 00de 002B     		cmp	r3, #0
 258 00e0 EDD1     		bne	.L15
  57:iprintf.c     ****             }
  58:iprintf.c     ****             pszFmt++;
 259              		.loc 1 58 0
 260 00e2 3B6E     		ldr	r3, [r7, #96]
 261 00e4 0133     		adds	r3, r3, #1
 262 00e6 3B66     		str	r3, [r7, #96]
  59:iprintf.c     ****             continue;
 263              		.loc 1 59 0
 264 00e8 63E0     		b	.L7
 265              	.L12:
  60:iprintf.c     ****         }
  61:iprintf.c     ****         if(*pszFmt == 'c')
 266              		.loc 1 61 0
 267 00ea 3B6E     		ldr	r3, [r7, #96]
 268 00ec 1B78     		ldrb	r3, [r3]
 269 00ee 632B     		cmp	r3, #99
 270 00f0 13D1     		bne	.L16
  62:iprintf.c     ****         {
  63:iprintf.c     ****             cVal = (uint8)pArg[index++];
 271              		.loc 1 63 0
 272 00f2 FB6B     		ldr	r3, [r7, #60]
ARM GAS  C:\Users\YEHUDA~1\AppData\Local\Temp\ccUA30iV.s 			page 7


 273 00f4 5A1C     		adds	r2, r3, #1
 274 00f6 FA63     		str	r2, [r7, #60]
 275 00f8 9B00     		lsls	r3, r3, #2
 276 00fa BA6B     		ldr	r2, [r7, #56]
 277 00fc D318     		adds	r3, r2, r3
 278 00fe 1A68     		ldr	r2, [r3]
 279 0100 3723     		movs	r3, #55
 280 0102 FB18     		adds	r3, r7, r3
 281 0104 1A70     		strb	r2, [r3]
  64:iprintf.c     ****             iputc(cVal);
 282              		.loc 1 64 0
 283 0106 3723     		movs	r3, #55
 284 0108 FB18     		adds	r3, r7, r3
 285 010a 1B78     		ldrb	r3, [r3]
 286 010c 1800     		movs	r0, r3
 287 010e FFF7FEFF 		bl	iputc
  65:iprintf.c     ****             pszFmt++;
 288              		.loc 1 65 0
 289 0112 3B6E     		ldr	r3, [r7, #96]
 290 0114 0133     		adds	r3, r3, #1
 291 0116 3B66     		str	r3, [r7, #96]
  66:iprintf.c     ****             continue;
 292              		.loc 1 66 0
 293 0118 4BE0     		b	.L7
 294              	.L16:
  67:iprintf.c     ****         }
  68:iprintf.c     ****         if(*pszFmt == 'x')
 295              		.loc 1 68 0
 296 011a 3B6E     		ldr	r3, [r7, #96]
 297 011c 1B78     		ldrb	r3, [r3]
 298 011e 782B     		cmp	r3, #120
 299 0120 44D1     		bne	.L17
  69:iprintf.c     ****         {
  70:iprintf.c     ****             xVal = pArg[index++];
 300              		.loc 1 70 0
 301 0122 FB6B     		ldr	r3, [r7, #60]
 302 0124 5A1C     		adds	r2, r3, #1
 303 0126 FA63     		str	r2, [r7, #60]
 304 0128 9B00     		lsls	r3, r3, #2
 305 012a BA6B     		ldr	r2, [r7, #56]
 306 012c D318     		adds	r3, r2, r3
 307 012e 1B68     		ldr	r3, [r3]
 308 0130 7B64     		str	r3, [r7, #68]
  71:iprintf.c     ****             i = 0;
 309              		.loc 1 71 0
 310 0132 0023     		movs	r3, #0
 311 0134 3B64     		str	r3, [r7, #64]
 312              	.L18:
  72:iprintf.c     ****             do{
  73:iprintf.c     ****                 buffer[i++] = xVal % 16;
 313              		.loc 1 73 0 discriminator 1
 314 0136 3B6C     		ldr	r3, [r7, #64]
 315 0138 5A1C     		adds	r2, r3, #1
 316 013a 3A64     		str	r2, [r7, #64]
 317 013c 7A6C     		ldr	r2, [r7, #68]
 318 013e 0F21     		movs	r1, #15
 319 0140 1140     		ands	r1, r2
ARM GAS  C:\Users\YEHUDA~1\AppData\Local\Temp\ccUA30iV.s 			page 8


 320 0142 3A1D     		adds	r2, r7, #4
 321 0144 9B00     		lsls	r3, r3, #2
 322 0146 9950     		str	r1, [r3, r2]
  74:iprintf.c     ****                 xVal /= 16;
 323              		.loc 1 74 0 discriminator 1
 324 0148 7B6C     		ldr	r3, [r7, #68]
 325 014a 1B09     		lsrs	r3, r3, #4
 326 014c 7B64     		str	r3, [r7, #68]
  75:iprintf.c     ****             }while(xVal);
 327              		.loc 1 75 0 discriminator 1
 328 014e 7B6C     		ldr	r3, [r7, #68]
 329 0150 002B     		cmp	r3, #0
 330 0152 F0D1     		bne	.L18
  76:iprintf.c     ****             if(i%2!=0)
 331              		.loc 1 76 0
 332 0154 3B6C     		ldr	r3, [r7, #64]
 333 0156 0122     		movs	r2, #1
 334 0158 1340     		ands	r3, r2
 335 015a 06D0     		beq	.L19
  77:iprintf.c     ****                 buffer[i++]=0;
 336              		.loc 1 77 0
 337 015c 3B6C     		ldr	r3, [r7, #64]
 338 015e 5A1C     		adds	r2, r3, #1
 339 0160 3A64     		str	r2, [r7, #64]
 340 0162 3A1D     		adds	r2, r7, #4
 341 0164 9B00     		lsls	r3, r3, #2
 342 0166 0021     		movs	r1, #0
 343 0168 9950     		str	r1, [r3, r2]
 344              	.L19:
  78:iprintf.c     ****             if(i<2)
 345              		.loc 1 78 0
 346 016a 3B6C     		ldr	r3, [r7, #64]
 347 016c 012B     		cmp	r3, #1
 348 016e 16D8     		bhi	.L21
  79:iprintf.c     ****                 buffer[i++]=0;
 349              		.loc 1 79 0
 350 0170 3B6C     		ldr	r3, [r7, #64]
 351 0172 5A1C     		adds	r2, r3, #1
 352 0174 3A64     		str	r2, [r7, #64]
 353 0176 3A1D     		adds	r2, r7, #4
 354 0178 9B00     		lsls	r3, r3, #2
 355 017a 0021     		movs	r1, #0
 356 017c 9950     		str	r1, [r3, r2]
  80:iprintf.c     **** 
  81:iprintf.c     ****             while(i > 0)
 357              		.loc 1 81 0
 358 017e 0EE0     		b	.L21
 359              	.L22:
  82:iprintf.c     ****             {
  83:iprintf.c     ****                 i--;
 360              		.loc 1 83 0
 361 0180 3B6C     		ldr	r3, [r7, #64]
 362 0182 013B     		subs	r3, r3, #1
 363 0184 3B64     		str	r3, [r7, #64]
  84:iprintf.c     ****                 iputc(*change(buffer[i]));
 364              		.loc 1 84 0
 365 0186 3B1D     		adds	r3, r7, #4
ARM GAS  C:\Users\YEHUDA~1\AppData\Local\Temp\ccUA30iV.s 			page 9


 366 0188 3A6C     		ldr	r2, [r7, #64]
 367 018a 9200     		lsls	r2, r2, #2
 368 018c D358     		ldr	r3, [r2, r3]
 369 018e 1800     		movs	r0, r3
 370 0190 FFF7FEFF 		bl	change
 371 0194 0300     		movs	r3, r0
 372 0196 1B78     		ldrb	r3, [r3]
 373 0198 1800     		movs	r0, r3
 374 019a FFF7FEFF 		bl	iputc
 375              	.L21:
  81:iprintf.c     ****             {
 376              		.loc 1 81 0
 377 019e 3B6C     		ldr	r3, [r7, #64]
 378 01a0 002B     		cmp	r3, #0
 379 01a2 EDD1     		bne	.L22
  85:iprintf.c     ****             }
  86:iprintf.c     ****             pszFmt++;
 380              		.loc 1 86 0
 381 01a4 3B6E     		ldr	r3, [r7, #96]
 382 01a6 0133     		adds	r3, r3, #1
 383 01a8 3B66     		str	r3, [r7, #96]
  87:iprintf.c     ****             continue;
 384              		.loc 1 87 0
 385 01aa 02E0     		b	.L7
 386              	.L17:
  88:iprintf.c     ****         }
  89:iprintf.c     ****         if(pszFmt == '\0')
 387              		.loc 1 89 0
 388 01ac 3B6E     		ldr	r3, [r7, #96]
 389 01ae 002B     		cmp	r3, #0
 390 01b0 05D0     		beq	.L25
 391              	.L7:
  27:iprintf.c     ****     {
 392              		.loc 1 27 0
 393 01b2 3B6E     		ldr	r3, [r7, #96]
 394 01b4 1B78     		ldrb	r3, [r3]
 395 01b6 002B     		cmp	r3, #0
 396 01b8 00D0     		beq	.LCB326
 397 01ba 2DE7     		b	.L24	@long jump
 398              	.LCB326:
  90:iprintf.c     ****         {
  91:iprintf.c     ****             break;
  92:iprintf.c     ****         }
  93:iprintf.c     **** 
  94:iprintf.c     ****     }
  95:iprintf.c     **** }/* ========================================
 399              		.loc 1 95 0
 400 01bc 00E0     		b	.L23
 401              	.L25:
  91:iprintf.c     ****         }
 402              		.loc 1 91 0
 403 01be C046     		nop
 404              	.L23:
 405              		.loc 1 95 0 discriminator 1
 406 01c0 C046     		nop
 407 01c2 BD46     		mov	sp, r7
 408 01c4 15B0     		add	sp, sp, #84
ARM GAS  C:\Users\YEHUDA~1\AppData\Local\Temp\ccUA30iV.s 			page 10


 409              		@ sp needed
 410 01c6 90BC     		pop	{r4, r7}
 411 01c8 08BC     		pop	{r3}
 412 01ca 04B0     		add	sp, sp, #16
 413 01cc 1847     		bx	r3
 414              		.cfi_endproc
 415              	.LFE37:
 416              		.size	iprintf, .-iprintf
 417 01ce C046     		.text
 418              	.Letext0:
 419              		.file 2 "Generated_Source\\PSoC4/cytypes.h"