ARM GAS  C:\Users\YEHUDA~1\AppData\Local\Temp\cc2Yxsiq.s 			page 1


   1              		.syntax unified
   2              		.cpu cortex-m0
   3              		.fpu softvfp
   4              		.eabi_attribute 20, 1
   5              		.eabi_attribute 21, 1
   6              		.eabi_attribute 23, 3
   7              		.eabi_attribute 24, 1
   8              		.eabi_attribute 25, 1
   9              		.eabi_attribute 26, 1
  10              		.eabi_attribute 30, 6
  11              		.eabi_attribute 34, 0
  12              		.eabi_attribute 18, 4
  13              		.thumb
  14              		.syntax unified
  15              		.file	"main.c"
  16              		.text
  17              	.Ltext0:
  18              		.cfi_sections	.debug_frame
  19              		.section	.rodata
  20              		.align	2
  21              	.LC2:
  22 0000 53746172 		.ascii	"Start up, welcome!\012\015\000"
  22      74207570 
  22      2C207765 
  22      6C636F6D 
  22      65210A0D 
  23 0015 000000   		.align	2
  24              	.LC0:
  25 0018 02       		.byte	2
  26 0019 02       		.byte	2
  27 001a 03       		.byte	3
  28 001b 04       		.byte	4
  29 001c 05       		.byte	5
  30 001d 06       		.byte	6
  31              		.section	.text.main,"ax",%progbits
  32              		.align	2
  33              		.global	main
  34              		.code	16
  35              		.thumb_func
  36              		.type	main, %function
  37              	main:
  38              	.LFB35:
  39              		.file 1 "main.c"
   1:main.c        **** /* ========================================
   2:main.c        ****  * Written by Yehuda Ben Chaim
   3:main.c        ****  * 06/2018 Israel
   4:main.c        ****  * All Rights Reserved
   5:main.c        ****  * WW FW Version 1.0.0.0
   6:main.c        **** 
   7:main.c        ****  * ========================================
   8:main.c        **** */
   9:main.c        **** #include <project.h>
  10:main.c        **** #include <BLEApplications.h>
  11:main.c        **** #include "Control.h"
  12:main.c        **** #include "iprintf.h"
  13:main.c        **** 
  14:main.c        **** 
ARM GAS  C:\Users\YEHUDA~1\AppData\Local\Temp\cc2Yxsiq.s 			page 2


  15:main.c        **** void AppCallBack(uint32 event, void* eventParam);
  16:main.c        **** int main (void)
  17:main.c        **** {
  40              		.loc 1 17 0
  41              		.cfi_startproc
  42              		@ args = 0, pretend = 0, frame = 8
  43              		@ frame_needed = 1, uses_anonymous_args = 0
  44 0000 80B5     		push	{r7, lr}
  45              		.cfi_def_cfa_offset 8
  46              		.cfi_offset 7, -8
  47              		.cfi_offset 14, -4
  48 0002 82B0     		sub	sp, sp, #8
  49              		.cfi_def_cfa_offset 16
  50 0004 00AF     		add	r7, sp, #0
  51              		.cfi_def_cfa_register 7
  18:main.c        ****     CyGlobalIntEnable;
  52              		.loc 1 18 0
  53              		.syntax divided
  54              	@ 18 "main.c" 1
  55 0006 62B6     		CPSIE   i
  56              	@ 0 "" 2
  19:main.c        ****     CyBle_Start(CustomEventHandler);            //Start BLE component. the CustomEventHandler argum
  57              		.loc 1 19 0
  58              		.thumb
  59              		.syntax unified
  60 0008 164B     		ldr	r3, .L4
  61 000a 1800     		movs	r0, r3
  62 000c FFF7FEFF 		bl	CyBle_Start
  20:main.c        ****     SCB_1_Start();                              //Start the UART component of iprintf. UART as logg
  63              		.loc 1 20 0
  64 0010 FFF7FEFF 		bl	SCB_1_Start
  21:main.c        ****     iprintf("Start up, welcome!\n\r");
  65              		.loc 1 21 0
  66 0014 144B     		ldr	r3, .L4+4
  67 0016 1800     		movs	r0, r3
  68 0018 FFF7FEFF 		bl	iprintf
  22:main.c        ****     uint8_t testArr[6] = {2,2,3,4,5,6};
  69              		.loc 1 22 0
  70 001c 3A00     		movs	r2, r7
  71 001e 134B     		ldr	r3, .L4+8
  72 0020 1000     		movs	r0, r2
  73 0022 1900     		movs	r1, r3
  74 0024 0623     		movs	r3, #6
  75 0026 1A00     		movs	r2, r3
  76 0028 FFF7FEFF 		bl	memcpy
  23:main.c        ****     SendReedSwitchNotification(testArr);
  77              		.loc 1 23 0
  78 002c 3B00     		movs	r3, r7
  79 002e 1800     		movs	r0, r3
  80 0030 FFF7FEFF 		bl	SendReedSwitchNotification
  81              	.L3:
  24:main.c        ****     for(;;)
  25:main.c        ****     {
  26:main.c        ****         if(CyBle_GetState() == CYBLE_STATE_CONNECTED)
  82              		.loc 1 26 0
  83 0034 0E4B     		ldr	r3, .L4+12
  84 0036 1B78     		ldrb	r3, [r3]
ARM GAS  C:\Users\YEHUDA~1\AppData\Local\Temp\cc2Yxsiq.s 			page 3


  85 0038 022B     		cmp	r3, #2
  86 003a 01D1     		bne	.L2
  27:main.c        ****         {
  28:main.c        ****             CyBle_ProcessEvents();
  87              		.loc 1 28 0
  88 003c FFF7FEFF 		bl	CyBle_ProcessEvents
  89              	.L2:
  29:main.c        ****         }
  30:main.c        ****         CyBle_ProcessEvents();
  90              		.loc 1 30 0
  91 0040 FFF7FEFF 		bl	CyBle_ProcessEvents
  31:main.c        ****         SendReedSwitchNotification(testArr);
  92              		.loc 1 31 0
  93 0044 3B00     		movs	r3, r7
  94 0046 1800     		movs	r0, r3
  95 0048 FFF7FEFF 		bl	SendReedSwitchNotification
  32:main.c        ****         CyDelay(500);
  96              		.loc 1 32 0
  97 004c FA23     		movs	r3, #250
  98 004e 5B00     		lsls	r3, r3, #1
  99 0050 1800     		movs	r0, r3
 100 0052 FFF7FEFF 		bl	CyDelay
  33:main.c        ****         SendReedSwitchNotification(testArr);
 101              		.loc 1 33 0
 102 0056 3B00     		movs	r3, r7
 103 0058 1800     		movs	r0, r3
 104 005a FFF7FEFF 		bl	SendReedSwitchNotification
  34:main.c        ****         IncomingDataAnalys();
 105              		.loc 1 34 0
 106 005e FFF7FEFF 		bl	IncomingDataAnalys
  35:main.c        ****         
  36:main.c        ****     }
 107              		.loc 1 36 0
 108 0062 E7E7     		b	.L3
 109              	.L5:
 110              		.align	2
 111              	.L4:
 112 0064 00000000 		.word	CustomEventHandler
 113 0068 00000000 		.word	.LC2
 114 006c 18000000 		.word	.LC0
 115 0070 00000000 		.word	cyBle_state
 116              		.cfi_endproc
 117              	.LFE35:
 118              		.size	main, .-main
 119              		.text
 120              	.Letext0:
 121              		.file 2 "c:\\program files (x86)\\cypress\\psoc creator\\4.2\\psoc creator\\import\\gnu\\arm\\5.4.
 122              		.file 3 "c:\\program files (x86)\\cypress\\psoc creator\\4.2\\psoc creator\\import\\gnu\\arm\\5.4.
 123              		.file 4 "Generated_Source\\PSoC4/BLE_eventHandler.h"