ARM GAS  C:\Users\YEHUDA~1\AppData\Local\Temp\cclYTvwn.s 			page 1


   1              		.syntax unified
   2              		.cpu cortex-m0
   3              		.fpu softvfp
   4              		.eabi_attribute 20, 1
   5              		.eabi_attribute 21, 1
   6              		.eabi_attribute 23, 3
   7              		.eabi_attribute 24, 1
   8              		.eabi_attribute 25, 1
   9              		.eabi_attribute 26, 1
  10              		.eabi_attribute 30, 1
  11              		.eabi_attribute 34, 0
  12              		.eabi_attribute 18, 4
  13              		.thumb
  14              		.syntax unified
  15              		.file	"BLE_Applocations.c"
  16              		.text
  17              	.Ltext0:
  18              		.cfi_sections	.debug_frame
  19              		.section	.text.OutgoingDataUpdate,"ax",%progbits
  20              		.align	2
  21              		.global	OutgoingDataUpdate
  22              		.code	16
  23              		.thumb_func
  24              		.type	OutgoingDataUpdate, %function
  25              	OutgoingDataUpdate:
  26              	.LFB36:
  27              		.file 1 "BLE_Applocations.c"
   1:BLE_Applocations.c **** /* ========================================
   2:BLE_Applocations.c ****  *
   3:BLE_Applocations.c ****  * Copyright Yehuda Ben Chaim, 2018
   4:BLE_Applocations.c ****  * All Rights Reserved
   5:BLE_Applocations.c ****  * UNPUBLISHED, LICENSED SOFTWARE.
   6:BLE_Applocations.c ****  *
   7:BLE_Applocations.c ****  * CONFIDENTIAL AND PROPRIETARY INFORMATION
   8:BLE_Applocations.c ****  * WHICH IS THE PROPERTY OF Yehuda Ben Chaim.
   9:BLE_Applocations.c ****  *
  10:BLE_Applocations.c ****  * ========================================
  11:BLE_Applocations.c **** */
  12:BLE_Applocations.c **** 
  13:BLE_Applocations.c **** /**** Includes ***************************************************************************/
  14:BLE_Applocations.c **** 
  15:BLE_Applocations.c **** #include "BLE_Applications.h"
  16:BLE_Applocations.c **** #include "GPIO.h"
  17:BLE_Applocations.c **** #include "project.h"
  18:BLE_Applocations.c **** 
  19:BLE_Applocations.c **** /**** File general variables *************************************************************/
  20:BLE_Applocations.c **** CYBLE_CONN_HANDLE_T  connectionHandle;
  21:BLE_Applocations.c **** uint8 deviceConnected = 0;
  22:BLE_Applocations.c **** CYBLE_GAP_BONDED_DEV_ADDR_LIST_T Peer_Addr1;
  23:BLE_Applocations.c **** 
  24:BLE_Applocations.c **** uint8_t password[2] = {0};
  25:BLE_Applocations.c **** 
  26:BLE_Applocations.c **** uint8_t BLE_IsConnectedFlag = 0;
  27:BLE_Applocations.c **** uint8_t DataUpdateFlag = 0;
  28:BLE_Applocations.c **** 
  29:BLE_Applocations.c **** 
  30:BLE_Applocations.c **** 
ARM GAS  C:\Users\YEHUDA~1\AppData\Local\Temp\cclYTvwn.s 			page 2


  31:BLE_Applocations.c **** /*** Private functions ******************************************************************/
  32:BLE_Applocations.c **** 
  33:BLE_Applocations.c **** /*************************************************************
  34:BLE_Applocations.c **** * Name: CustomEventHandler
  35:BLE_Applocations.c **** * Parameters[in]: uint32 event
  36:BLE_Applocations.c **** *                 void * eventParam
  37:BLE_Applocations.c **** * Return: None
  38:BLE_Applocations.c **** * Description: This fuction is the handler of the BLE.
  39:BLE_Applocations.c **** 
  40:BLE_Applocations.c **** ************************************************************/
  41:BLE_Applocations.c **** 
  42:BLE_Applocations.c **** void CustomEventHandler(uint32 event, void * eventParam)
  43:BLE_Applocations.c **** {
  44:BLE_Applocations.c **** 	CYBLE_GATTS_WRITE_REQ_PARAM_T *wrReqParam;
  45:BLE_Applocations.c ****    
  46:BLE_Applocations.c ****     switch(event)
  47:BLE_Applocations.c ****     {
  48:BLE_Applocations.c ****         case CYBLE_EVT_STACK_ON:
  49:BLE_Applocations.c ****             /* Start Advertisement and enter Discoverable mode*/
  50:BLE_Applocations.c **** 			CyBle_GappStartAdvertisement(CYBLE_ADVERTISING_FAST);
  51:BLE_Applocations.c ****                 break;
  52:BLE_Applocations.c ****         case CYBLE_EVT_GAP_DEVICE_DISCONNECTED:
  53:BLE_Applocations.c **** 			/* Start Advertisement and enter Discoverable mode*/
  54:BLE_Applocations.c **** 			CyBle_GappStartAdvertisement(CYBLE_ADVERTISING_FAST);
  55:BLE_Applocations.c **** 			break;
  56:BLE_Applocations.c **** 			
  57:BLE_Applocations.c **** 		case CYBLE_EVT_GAPP_ADVERTISEMENT_START_STOP:
  58:BLE_Applocations.c **** 			/* Set the BLE state variable to control LED status */
  59:BLE_Applocations.c ****             if(CYBLE_STATE_DISCONNECTED == CyBle_GetState())
  60:BLE_Applocations.c ****             {
  61:BLE_Applocations.c ****                 /* Start Advertisement and enter Discoverable mode*/
  62:BLE_Applocations.c ****                 CyBle_GappStartAdvertisement(CYBLE_ADVERTISING_FAST);
  63:BLE_Applocations.c ****             }
  64:BLE_Applocations.c **** 			break;
  65:BLE_Applocations.c **** 			
  66:BLE_Applocations.c ****         case CYBLE_EVT_GATT_CONNECT_IND:
  67:BLE_Applocations.c ****             /* This event is received when device is connected over GATT level */
  68:BLE_Applocations.c ****             /* Update attribute handle on GATT Connection*/
  69:BLE_Applocations.c ****             connectionHandle = *(CYBLE_CONN_HANDLE_T *) eventParam;
  70:BLE_Applocations.c ****             CyBle_GapGetBondedDevicesList(&Peer_Addr1);
  71:BLE_Applocations.c ****             deviceConnected = 1;
  72:BLE_Applocations.c **** 			break;
  73:BLE_Applocations.c ****         
  74:BLE_Applocations.c ****         case CYBLE_EVT_GATT_DISCONNECT_IND:			
  75:BLE_Applocations.c **** 			iprintf("Device disconnected\n\r");
  76:BLE_Applocations.c **** 			break; 
  77:BLE_Applocations.c ****         case CYBLE_EVT_GAP_DEVICE_CONNECTED:
  78:BLE_Applocations.c ****             iprintf("Device connected\n\r");
  79:BLE_Applocations.c ****             BLE_IsConnectedSet(1);
  80:BLE_Applocations.c ****             break;
  81:BLE_Applocations.c ****         case CYBLE_EVT_GATTC_HANDLE_VALUE_NTF:
  82:BLE_Applocations.c ****           //  CyBle_NotificationEventHandler((CYBLE_GATTC_HANDLE_VALUE_NTF_PARAM_T *)eventParam);
  83:BLE_Applocations.c ****             break;
  84:BLE_Applocations.c ****         case CYBLE_EVT_GATTS_WRITE_REQ: 							
  85:BLE_Applocations.c ****             /* This event is received when Central device sends a Write command 
  86:BLE_Applocations.c ****              * on an Attribute. 
  87:BLE_Applocations.c ****              * We first get the attribute handle from the event parameter and 
ARM GAS  C:\Users\YEHUDA~1\AppData\Local\Temp\cclYTvwn.s 			page 3


  88:BLE_Applocations.c ****              * then try to match that handle with an attribute in the database.
  89:BLE_Applocations.c ****              */
  90:BLE_Applocations.c ****             wrReqParam = (CYBLE_GATTS_WRITE_REQ_PARAM_T *) eventParam;
  91:BLE_Applocations.c ****             /* This condition checks whether the CCCD descriptor for CapSense
  92:BLE_Applocations.c ****              * slider characteristic has been written to. This tells us whether
  93:BLE_Applocations.c ****              * the notifications for CapSense slider have been enabled/disabled.
  94:BLE_Applocations.c ****              */
  95:BLE_Applocations.c ****             
  96:BLE_Applocations.c ****             if(wrReqParam->handleValPair.attrHandle == cyBle_customs[CYBLE_WW_SERVICE_SERVICE_INDEX
  97:BLE_Applocations.c **** 				customServiceInfo[CYBLE_WW_SERVICE_INCOMINGDATA_CHAR_INDEX].customServiceCharDescriptors[CYBLE_
  98:BLE_Applocations.c ****             {
  99:BLE_Applocations.c ****                 //TESTARR = wrReqParam->handleValPair.value.val[0];
 100:BLE_Applocations.c **** 				
 101:BLE_Applocations.c **** 				/* Set flag to allow CCCD to be updated for next read operation */
 102:BLE_Applocations.c **** 				//TESTARR1 = 1;
 103:BLE_Applocations.c ****             }
 104:BLE_Applocations.c **** 
 105:BLE_Applocations.c **** 			if(CYBLE_WW_SERVICE_INCOMINGDATA_CHAR_HANDLE == wrReqParam->handleValPair.attrHandle )
 106:BLE_Applocations.c ****            {      
 107:BLE_Applocations.c ****                password[0] = wrReqParam->handleValPair.value.val[0];
 108:BLE_Applocations.c ****                password[1] = wrReqParam->handleValPair.value.val[1];
 109:BLE_Applocations.c ****                if(password[0] == 0x05)
 110:BLE_Applocations.c ****                {
 111:BLE_Applocations.c ****                  OperationsMain(password[1]);
 112:BLE_Applocations.c ****                  //iprintf("It's 5!!!\n\r");
 113:BLE_Applocations.c ****                }
 114:BLE_Applocations.c ****                else
 115:BLE_Applocations.c ****                {
 116:BLE_Applocations.c ****                  DataUpdateSet(0);
 117:BLE_Applocations.c ****                  iprintf("It's not 5!!!\n\r");
 118:BLE_Applocations.c ****                }
 119:BLE_Applocations.c ****                 iprintf("The first value is: %x and the second value is: %x\n\r", password[0], pass
 120:BLE_Applocations.c ****                //CyBle_GattsWriteAttributeValue(&wrReqParam->handleValPair, ZERO, &cyBle_connHandle
 121:BLE_Applocations.c ****            }
 122:BLE_Applocations.c **** 			/* ADD_CODE to send the response to the write request received. */
 123:BLE_Applocations.c ****             
 124:BLE_Applocations.c **** 			CyBle_GattsWriteRsp(cyBle_connHandle);
 125:BLE_Applocations.c **** 			
 126:BLE_Applocations.c **** 			break;
 127:BLE_Applocations.c **** 
 128:BLE_Applocations.c ****         default:
 129:BLE_Applocations.c **** 
 130:BLE_Applocations.c ****        	 	break;
 131:BLE_Applocations.c ****     }
 132:BLE_Applocations.c **** }
 133:BLE_Applocations.c **** 
 134:BLE_Applocations.c **** 
 135:BLE_Applocations.c **** void OutgoingDataUpdate(uint8_t *Arr2Print)
 136:BLE_Applocations.c **** {
  28              		.loc 1 136 0
  29              		.cfi_startproc
  30              		@ args = 0, pretend = 0, frame = 16
  31              		@ frame_needed = 0, uses_anonymous_args = 0
  32              	.LVL0:
  33 0000 00B5     		push	{lr}
  34              		.cfi_def_cfa_offset 4
  35              		.cfi_offset 14, -4
ARM GAS  C:\Users\YEHUDA~1\AppData\Local\Temp\cclYTvwn.s 			page 4


  36 0002 85B0     		sub	sp, sp, #20
  37              		.cfi_def_cfa_offset 24
 137:BLE_Applocations.c ****   CYBLE_GATTS_HANDLE_VALUE_NTF_T OutgoingNTF_Hnadler;
 138:BLE_Applocations.c ****   
 139:BLE_Applocations.c ****   OutgoingNTF_Hnadler.attrHandle = CYBLE_WW_SERVICE_OUTGOINGDATA_CHAR_HANDLE;	
  38              		.loc 1 139 0
  39 0004 01A9     		add	r1, sp, #4
  40 0006 1523     		movs	r3, #21
  41 0008 0B81     		strh	r3, [r1, #8]
 140:BLE_Applocations.c ****   OutgoingNTF_Hnadler.value.val = Arr2Print;
  42              		.loc 1 140 0
  43 000a 0190     		str	r0, [sp, #4]
 141:BLE_Applocations.c ****   OutgoingNTF_Hnadler.value.len = 20;
  44              		.loc 1 141 0
  45 000c 013B     		subs	r3, r3, #1
  46 000e 8B80     		strh	r3, [r1, #4]
 142:BLE_Applocations.c ****   CyBle_GattsNotification(cyBle_connHandle, &OutgoingNTF_Hnadler);
  47              		.loc 1 142 0
  48 0010 044A     		ldr	r2, .L2
  49 0012 1378     		ldrb	r3, [r2]
  50 0014 5078     		ldrb	r0, [r2, #1]
  51              	.LVL1:
  52 0016 0002     		lsls	r0, r0, #8
  53 0018 1843     		orrs	r0, r3
  54 001a FFF7FEFF 		bl	CyBle_GattsNotification
  55              	.LVL2:
 143:BLE_Applocations.c ****   
 144:BLE_Applocations.c ****   
 145:BLE_Applocations.c **** }
  56              		.loc 1 145 0
  57 001e 05B0     		add	sp, sp, #20
  58              		@ sp needed
  59 0020 00BD     		pop	{pc}
  60              	.L3:
  61 0022 C046     		.align	2
  62              	.L2:
  63 0024 00000000 		.word	cyBle_connHandle
  64              		.cfi_endproc
  65              	.LFE36:
  66              		.size	OutgoingDataUpdate, .-OutgoingDataUpdate
  67              		.section	.text.BLE_IsConnectedSet,"ax",%progbits
  68              		.align	2
  69              		.global	BLE_IsConnectedSet
  70              		.code	16
  71              		.thumb_func
  72              		.type	BLE_IsConnectedSet, %function
  73              	BLE_IsConnectedSet:
  74              	.LFB37:
 146:BLE_Applocations.c **** 
 147:BLE_Applocations.c **** 
 148:BLE_Applocations.c **** void BLE_IsConnectedSet(uint8_t status)
 149:BLE_Applocations.c **** {
  75              		.loc 1 149 0
  76              		.cfi_startproc
  77              		@ args = 0, pretend = 0, frame = 0
  78              		@ frame_needed = 0, uses_anonymous_args = 0
  79              		@ link register save eliminated.
ARM GAS  C:\Users\YEHUDA~1\AppData\Local\Temp\cclYTvwn.s 			page 5


  80              	.LVL3:
 150:BLE_Applocations.c ****   BLE_IsConnectedFlag = status;
  81              		.loc 1 150 0
  82 0000 014B     		ldr	r3, .L5
  83 0002 1870     		strb	r0, [r3]
 151:BLE_Applocations.c **** }
  84              		.loc 1 151 0
  85              		@ sp needed
  86 0004 7047     		bx	lr
  87              	.L6:
  88 0006 C046     		.align	2
  89              	.L5:
  90 0008 00000000 		.word	.LANCHOR0
  91              		.cfi_endproc
  92              	.LFE37:
  93              		.size	BLE_IsConnectedSet, .-BLE_IsConnectedSet
  94              		.section	.text.BLE_IsConnectedGet,"ax",%progbits
  95              		.align	2
  96              		.global	BLE_IsConnectedGet
  97              		.code	16
  98              		.thumb_func
  99              		.type	BLE_IsConnectedGet, %function
 100              	BLE_IsConnectedGet:
 101              	.LFB38:
 152:BLE_Applocations.c **** 
 153:BLE_Applocations.c **** uint8_t BLE_IsConnectedGet(void)
 154:BLE_Applocations.c **** {
 102              		.loc 1 154 0
 103              		.cfi_startproc
 104              		@ args = 0, pretend = 0, frame = 0
 105              		@ frame_needed = 0, uses_anonymous_args = 0
 106              		@ link register save eliminated.
 155:BLE_Applocations.c ****   return BLE_IsConnectedFlag;
 107              		.loc 1 155 0
 108 0000 014B     		ldr	r3, .L8
 109 0002 1878     		ldrb	r0, [r3]
 156:BLE_Applocations.c **** }
 110              		.loc 1 156 0
 111              		@ sp needed
 112 0004 7047     		bx	lr
 113              	.L9:
 114 0006 C046     		.align	2
 115              	.L8:
 116 0008 00000000 		.word	.LANCHOR0
 117              		.cfi_endproc
 118              	.LFE38:
 119              		.size	BLE_IsConnectedGet, .-BLE_IsConnectedGet
 120              		.section	.text.DataUpdateSet,"ax",%progbits
 121              		.align	2
 122              		.global	DataUpdateSet
 123              		.code	16
 124              		.thumb_func
 125              		.type	DataUpdateSet, %function
 126              	DataUpdateSet:
 127              	.LFB39:
 157:BLE_Applocations.c **** 
 158:BLE_Applocations.c **** 
ARM GAS  C:\Users\YEHUDA~1\AppData\Local\Temp\cclYTvwn.s 			page 6


 159:BLE_Applocations.c **** 
 160:BLE_Applocations.c **** void DataUpdateSet(uint8_t status)
 161:BLE_Applocations.c **** {
 128              		.loc 1 161 0
 129              		.cfi_startproc
 130              		@ args = 0, pretend = 0, frame = 0
 131              		@ frame_needed = 0, uses_anonymous_args = 0
 132              		@ link register save eliminated.
 133              	.LVL4:
 162:BLE_Applocations.c ****   DataUpdateFlag = status;
 134              		.loc 1 162 0
 135 0000 014B     		ldr	r3, .L11
 136 0002 5870     		strb	r0, [r3, #1]
 163:BLE_Applocations.c **** }
 137              		.loc 1 163 0
 138              		@ sp needed
 139 0004 7047     		bx	lr
 140              	.L12:
 141 0006 C046     		.align	2
 142              	.L11:
 143 0008 00000000 		.word	.LANCHOR0
 144              		.cfi_endproc
 145              	.LFE39:
 146              		.size	DataUpdateSet, .-DataUpdateSet
 147              		.section	.text.CustomEventHandler,"ax",%progbits
 148              		.align	2
 149              		.global	CustomEventHandler
 150              		.code	16
 151              		.thumb_func
 152              		.type	CustomEventHandler, %function
 153              	CustomEventHandler:
 154              	.LFB35:
  43:BLE_Applocations.c **** 	CYBLE_GATTS_WRITE_REQ_PARAM_T *wrReqParam;
 155              		.loc 1 43 0
 156              		.cfi_startproc
 157              		@ args = 0, pretend = 0, frame = 0
 158              		@ frame_needed = 0, uses_anonymous_args = 0
 159              	.LVL5:
 160 0000 10B5     		push	{r4, lr}
 161              		.cfi_def_cfa_offset 8
 162              		.cfi_offset 4, -8
 163              		.cfi_offset 14, -4
  46:BLE_Applocations.c ****     {
 164              		.loc 1 46 0
 165 0002 2828     		cmp	r0, #40
 166 0004 11D0     		beq	.L15
 167 0006 05D8     		bhi	.L16
 168 0008 2628     		cmp	r0, #38
 169 000a 12D0     		beq	.L17
 170 000c 28D8     		bhi	.L18
 171 000e 0128     		cmp	r0, #1
 172 0010 07D0     		beq	.L19
 173 0012 4DE0     		b	.L13
 174              	.L16:
 175 0014 4228     		cmp	r0, #66
 176 0016 1FD0     		beq	.L20
 177 0018 4C28     		cmp	r0, #76
ARM GAS  C:\Users\YEHUDA~1\AppData\Local\Temp\cclYTvwn.s 			page 7


 178 001a 28D0     		beq	.L21
 179 001c 4128     		cmp	r0, #65
 180 001e 47D1     		bne	.L13
 181 0020 0FE0     		b	.L22
 182              	.L19:
  50:BLE_Applocations.c ****                 break;
 183              		.loc 1 50 0
 184 0022 0020     		movs	r0, #0
 185              	.LVL6:
 186 0024 FFF7FEFF 		bl	CyBle_GappStartAdvertisement
 187              	.LVL7:
  51:BLE_Applocations.c ****         case CYBLE_EVT_GAP_DEVICE_DISCONNECTED:
 188              		.loc 1 51 0
 189 0028 42E0     		b	.L13
 190              	.LVL8:
 191              	.L15:
  54:BLE_Applocations.c **** 			break;
 192              		.loc 1 54 0
 193 002a 0020     		movs	r0, #0
 194              	.LVL9:
 195 002c FFF7FEFF 		bl	CyBle_GappStartAdvertisement
 196              	.LVL10:
  55:BLE_Applocations.c **** 			
 197              		.loc 1 55 0
 198 0030 3EE0     		b	.L13
 199              	.LVL11:
 200              	.L17:
  59:BLE_Applocations.c ****             {
 201              		.loc 1 59 0
 202 0032 204B     		ldr	r3, .L26
 203 0034 1B78     		ldrb	r3, [r3]
 204 0036 042B     		cmp	r3, #4
 205 0038 3AD1     		bne	.L13
  62:BLE_Applocations.c ****             }
 206              		.loc 1 62 0
 207 003a 0020     		movs	r0, #0
 208              	.LVL12:
 209 003c FFF7FEFF 		bl	CyBle_GappStartAdvertisement
 210              	.LVL13:
 211 0040 36E0     		b	.L13
 212              	.LVL14:
 213              	.L22:
  69:BLE_Applocations.c ****             CyBle_GapGetBondedDevicesList(&Peer_Addr1);
 214              		.loc 1 69 0
 215 0042 0222     		movs	r2, #2
 216 0044 1C48     		ldr	r0, .L26+4
 217              	.LVL15:
 218 0046 FFF7FEFF 		bl	memcpy
 219              	.LVL16:
  70:BLE_Applocations.c ****             deviceConnected = 1;
 220              		.loc 1 70 0
 221 004a 1C48     		ldr	r0, .L26+8
 222 004c FFF7FEFF 		bl	CyBle_GapGetBondedDevicesList
 223              	.LVL17:
  71:BLE_Applocations.c **** 			break;
 224              		.loc 1 71 0
 225 0050 0122     		movs	r2, #1
ARM GAS  C:\Users\YEHUDA~1\AppData\Local\Temp\cclYTvwn.s 			page 8


 226 0052 1B4B     		ldr	r3, .L26+12
 227 0054 9A70     		strb	r2, [r3, #2]
  72:BLE_Applocations.c ****         
 228              		.loc 1 72 0
 229 0056 2BE0     		b	.L13
 230              	.LVL18:
 231              	.L20:
  75:BLE_Applocations.c **** 			break; 
 232              		.loc 1 75 0
 233 0058 1A48     		ldr	r0, .L26+16
 234              	.LVL19:
 235 005a FFF7FEFF 		bl	iprintf
 236              	.LVL20:
  76:BLE_Applocations.c ****         case CYBLE_EVT_GAP_DEVICE_CONNECTED:
 237              		.loc 1 76 0
 238 005e 27E0     		b	.L13
 239              	.LVL21:
 240              	.L18:
  78:BLE_Applocations.c ****             BLE_IsConnectedSet(1);
 241              		.loc 1 78 0
 242 0060 1948     		ldr	r0, .L26+20
 243              	.LVL22:
 244 0062 FFF7FEFF 		bl	iprintf
 245              	.LVL23:
  79:BLE_Applocations.c ****             break;
 246              		.loc 1 79 0
 247 0066 0120     		movs	r0, #1
 248 0068 FFF7FEFF 		bl	BLE_IsConnectedSet
 249              	.LVL24:
  80:BLE_Applocations.c ****         case CYBLE_EVT_GATTC_HANDLE_VALUE_NTF:
 250              		.loc 1 80 0
 251 006c 20E0     		b	.L13
 252              	.LVL25:
 253              	.L21:
 105:BLE_Applocations.c ****            {      
 254              		.loc 1 105 0
 255 006e 8B89     		ldrh	r3, [r1, #12]
 256 0070 122B     		cmp	r3, #18
 257 0072 16D1     		bne	.L23
 107:BLE_Applocations.c ****                password[1] = wrReqParam->handleValPair.value.val[1];
 258              		.loc 1 107 0
 259 0074 4968     		ldr	r1, [r1, #4]
 260              	.LVL26:
 261 0076 0B78     		ldrb	r3, [r1]
 262 0078 114A     		ldr	r2, .L26+12
 263 007a 1371     		strb	r3, [r2, #4]
 108:BLE_Applocations.c ****                if(password[0] == 0x05)
 264              		.loc 1 108 0
 265 007c 4878     		ldrb	r0, [r1, #1]
 266              	.LVL27:
 267 007e 5071     		strb	r0, [r2, #5]
 109:BLE_Applocations.c ****                {
 268              		.loc 1 109 0
 269 0080 052B     		cmp	r3, #5
 270 0082 02D1     		bne	.L24
 111:BLE_Applocations.c ****                  //iprintf("It's 5!!!\n\r");
 271              		.loc 1 111 0
ARM GAS  C:\Users\YEHUDA~1\AppData\Local\Temp\cclYTvwn.s 			page 9


 272 0084 FFF7FEFF 		bl	OperationsMain
 273              	.LVL28:
 274 0088 05E0     		b	.L25
 275              	.L24:
 116:BLE_Applocations.c ****                  iprintf("It's not 5!!!\n\r");
 276              		.loc 1 116 0
 277 008a 0020     		movs	r0, #0
 278 008c FFF7FEFF 		bl	DataUpdateSet
 279              	.LVL29:
 117:BLE_Applocations.c ****                }
 280              		.loc 1 117 0
 281 0090 0E48     		ldr	r0, .L26+24
 282 0092 FFF7FEFF 		bl	iprintf
 283              	.LVL30:
 284              	.L25:
 119:BLE_Applocations.c ****                //CyBle_GattsWriteAttributeValue(&wrReqParam->handleValPair, ZERO, &cyBle_connHandle
 285              		.loc 1 119 0
 286 0096 0A4B     		ldr	r3, .L26+12
 287 0098 1979     		ldrb	r1, [r3, #4]
 288 009a 5A79     		ldrb	r2, [r3, #5]
 289 009c 0C48     		ldr	r0, .L26+28
 290 009e FFF7FEFF 		bl	iprintf
 291              	.LVL31:
 292              	.L23:
 124:BLE_Applocations.c **** 			
 293              		.loc 1 124 0
 294 00a2 0C4A     		ldr	r2, .L26+32
 295 00a4 1378     		ldrb	r3, [r2]
 296 00a6 5078     		ldrb	r0, [r2, #1]
 297 00a8 0002     		lsls	r0, r0, #8
 298 00aa 1843     		orrs	r0, r3
 299 00ac FFF7FEFF 		bl	CyBle_GattsWriteRsp
 300              	.LVL32:
 301              	.L13:
 132:BLE_Applocations.c **** 
 302              		.loc 1 132 0
 303              		@ sp needed
 304 00b0 10BD     		pop	{r4, pc}
 305              	.L27:
 306 00b2 C046     		.align	2
 307              	.L26:
 308 00b4 00000000 		.word	cyBle_state
 309 00b8 00000000 		.word	connectionHandle
 310 00bc 00000000 		.word	Peer_Addr1
 311 00c0 00000000 		.word	.LANCHOR0
 312 00c4 00000000 		.word	.LC8
 313 00c8 18000000 		.word	.LC10
 314 00cc 2C000000 		.word	.LC12
 315 00d0 3C000000 		.word	.LC14
 316 00d4 00000000 		.word	cyBle_connHandle
 317              		.cfi_endproc
 318              	.LFE35:
 319              		.size	CustomEventHandler, .-CustomEventHandler
 320              		.section	.text.DataUpdateGet,"ax",%progbits
 321              		.align	2
 322              		.global	DataUpdateGet
 323              		.code	16
ARM GAS  C:\Users\YEHUDA~1\AppData\Local\Temp\cclYTvwn.s 			page 10


 324              		.thumb_func
 325              		.type	DataUpdateGet, %function
 326              	DataUpdateGet:
 327              	.LFB40:
 164:BLE_Applocations.c **** 
 165:BLE_Applocations.c **** uint8_t DataUpdateGet(void)
 166:BLE_Applocations.c **** {
 328              		.loc 1 166 0
 329              		.cfi_startproc
 330              		@ args = 0, pretend = 0, frame = 0
 331              		@ frame_needed = 0, uses_anonymous_args = 0
 332              		@ link register save eliminated.
 167:BLE_Applocations.c ****   return DataUpdateFlag;
 333              		.loc 1 167 0
 334 0000 014B     		ldr	r3, .L29
 335 0002 5878     		ldrb	r0, [r3, #1]
 168:BLE_Applocations.c **** }
 336              		.loc 1 168 0
 337              		@ sp needed
 338 0004 7047     		bx	lr
 339              	.L30:
 340 0006 C046     		.align	2
 341              	.L29:
 342 0008 00000000 		.word	.LANCHOR0
 343              		.cfi_endproc
 344              	.LFE40:
 345              		.size	DataUpdateGet, .-DataUpdateGet
 346              		.global	DataUpdateFlag
 347              		.global	BLE_IsConnectedFlag
 348              		.global	password
 349              		.comm	Peer_Addr1,29,4
 350              		.global	deviceConnected
 351              		.comm	connectionHandle,2,4
 352              		.section	.rodata.str1.4,"aMS",%progbits,1
 353              		.align	2
 354              	.LC8:
 355 0000 44657669 		.ascii	"Device disconnected\012\015\000"
 355      63652064 
 355      6973636F 
 355      6E6E6563 
 355      7465640A 
 356 0016 0000     		.space	2
 357              	.LC10:
 358 0018 44657669 		.ascii	"Device connected\012\015\000"
 358      63652063 
 358      6F6E6E65 
 358      63746564 
 358      0A0D00
 359 002b 00       		.space	1
 360              	.LC12:
 361 002c 49742773 		.ascii	"It's not 5!!!\012\015\000"
 361      206E6F74 
 361      20352121 
 361      210A0D00 
 362              	.LC14:
 363 003c 54686520 		.ascii	"The first value is: %x and the second value is: %x\012"
 363      66697273 
ARM GAS  C:\Users\YEHUDA~1\AppData\Local\Temp\cclYTvwn.s 			page 11


 363      74207661 
 363      6C756520 
 363      69733A20 
 364 006f 0D00     		.ascii	"\015\000"
 365              		.bss
 366              		.align	2
 367              		.set	.LANCHOR0,. + 0
 368              		.type	BLE_IsConnectedFlag, %object
 369              		.size	BLE_IsConnectedFlag, 1
 370              	BLE_IsConnectedFlag:
 371 0000 00       		.space	1
 372              		.type	DataUpdateFlag, %object
 373              		.size	DataUpdateFlag, 1
 374              	DataUpdateFlag:
 375 0001 00       		.space	1
 376              		.type	deviceConnected, %object
 377              		.size	deviceConnected, 1
 378              	deviceConnected:
 379 0002 00       		.space	1
 380 0003 00       		.space	1
 381              		.type	password, %object
 382              		.size	password, 2
 383              	password:
 384 0004 0000     		.space	2
 385              		.text
 386              	.Letext0:
 387              		.file 2 "c:\\program files (x86)\\cypress\\psoc creator\\4.2\\psoc creator\\import\\gnu\\arm\\5.4.
 388              		.file 3 "c:\\program files (x86)\\cypress\\psoc creator\\4.2\\psoc creator\\import\\gnu\\arm\\5.4.
 389              		.file 4 "Generated_Source\\PSoC4/cytypes.h"
 390              		.file 5 "Generated_Source\\PSoC4/BLE_Stack.h"
 391              		.file 6 "Generated_Source\\PSoC4/BLE_StackGap.h"
 392              		.file 7 "Generated_Source\\PSoC4/BLE_StackGatt.h"
 393              		.file 8 "Generated_Source\\PSoC4/BLE_StackGattServer.h"
 394              		.file 9 "Generated_Source\\PSoC4/BLE_custom.h"
 395              		.file 10 "Generated_Source\\PSoC4/BLE_eventHandler.h"
 396              		.file 11 "Generated_Source\\PSoC4/BLE.h"
 397              		.file 12 "./iprintf.h"
 398              		.file 13 "GPIO.h"