ARM GAS  C:\Users\YEHUDA~1\AppData\Local\Temp\cc7EWhT8.s 			page 1


   1              		.syntax unified
   2              		.cpu cortex-m0
   3              		.fpu softvfp
   4              		.eabi_attribute 20, 1
   5              		.eabi_attribute 21, 1
   6              		.eabi_attribute 23, 3
   7              		.eabi_attribute 24, 1
   8              		.eabi_attribute 25, 1
   9              		.eabi_attribute 26, 1
  10              		.eabi_attribute 30, 1
  11              		.eabi_attribute 34, 0
  12              		.eabi_attribute 18, 4
  13              		.thumb
  14              		.syntax unified
  15              		.file	"BuzzerImp.c"
  16              		.text
  17              	.Ltext0:
  18              		.cfi_sections	.debug_frame
  19              		.section	.text.BuzzerBeepStart,"ax",%progbits
  20              		.align	2
  21              		.global	BuzzerBeepStart
  22              		.code	16
  23              		.thumb_func
  24              		.type	BuzzerBeepStart, %function
  25              	BuzzerBeepStart:
  26              	.LFB35:
  27              		.file 1 "BuzzerImp.c"
   1:BuzzerImp.c   **** /* ========================================
   2:BuzzerImp.c   ****  *
   3:BuzzerImp.c   ****  * Copyright Yehuda Ben Chaim, 2018
   4:BuzzerImp.c   ****  * All Rights Reserved
   5:BuzzerImp.c   ****  * UNPUBLISHED, LICENSED SOFTWARE.
   6:BuzzerImp.c   ****  *
   7:BuzzerImp.c   ****  * CONFIDENTIAL AND PROPRIETARY INFORMATION
   8:BuzzerImp.c   ****  * WHICH IS THE PROPERTY OF Yehuda Ben Chaim.
   9:BuzzerImp.c   ****  *
  10:BuzzerImp.c   ****  * ========================================
  11:BuzzerImp.c   **** */
  12:BuzzerImp.c   **** 
  13:BuzzerImp.c   **** /**** Includes *****************************************/
  14:BuzzerImp.c   **** #include "BuzzerImp.h"
  15:BuzzerImp.c   **** #include "Buzzer.h"
  16:BuzzerImp.c   **** 
  17:BuzzerImp.c   **** /**** Defines *****************************************/
  18:BuzzerImp.c   **** 
  19:BuzzerImp.c   **** /**** Private variables decleration *******************/
  20:BuzzerImp.c   **** 
  21:BuzzerImp.c   **** static uint32_t TimeSample4Buzzer = 0;
  22:BuzzerImp.c   **** static uint32_t BuzzerLocalInterval = 0;
  23:BuzzerImp.c   **** static uint8_t BuzzerStatus = OFF;
  24:BuzzerImp.c   **** static uint8_t BuzzerBeepIsSetFlag = FALSE;
  25:BuzzerImp.c   **** 
  26:BuzzerImp.c   **** /**** Private functions decleration *******************/
  27:BuzzerImp.c   **** 
  28:BuzzerImp.c   **** /**** Private functions *******************************/
  29:BuzzerImp.c   **** 
  30:BuzzerImp.c   **** 
ARM GAS  C:\Users\YEHUDA~1\AppData\Local\Temp\cc7EWhT8.s 			page 2


  31:BuzzerImp.c   **** /**************************************************************
  32:BuzzerImp.c   **** * Name: BuzzerBeepStart
  33:BuzzerImp.c   **** * Parameters[in]: uint32_t Interval
  34:BuzzerImp.c   **** * Return: None
  35:BuzzerImp.c   **** * Description: This function sets a repeatable beep with interval
  36:BuzzerImp.c   **** * set by the user. To stop the operation, call BuzzerBeepStop() funcion.
  37:BuzzerImp.c   **** 
  38:BuzzerImp.c   **** ************************************************************/
  39:BuzzerImp.c   **** void BuzzerBeepStart(uint32_t Interval)
  40:BuzzerImp.c   **** {
  28              		.loc 1 40 0
  29              		.cfi_startproc
  30              		@ args = 0, pretend = 0, frame = 0
  31              		@ frame_needed = 0, uses_anonymous_args = 0
  32              	.LVL0:
  33 0000 70B5     		push	{r4, r5, r6, lr}
  34              		.cfi_def_cfa_offset 16
  35              		.cfi_offset 4, -16
  36              		.cfi_offset 5, -12
  37              		.cfi_offset 6, -8
  38              		.cfi_offset 14, -4
  39 0002 0500     		movs	r5, r0
  41:BuzzerImp.c   ****   TimeSample4Buzzer = SysTickGet();
  40              		.loc 1 41 0
  41 0004 FFF7FEFF 		bl	SysTickGet
  42              	.LVL1:
  43 0008 054C     		ldr	r4, .L2
  44 000a 2060     		str	r0, [r4]
  42:BuzzerImp.c   ****   BuzzerLocalInterval = Interval;                               //Set the interval from the user to
  45              		.loc 1 42 0
  46 000c 6560     		str	r5, [r4, #4]
  43:BuzzerImp.c   ****   BuzzerPWM_Stop();                                             //Stop the buzzer the make its stat
  47              		.loc 1 43 0
  48 000e FFF7FEFF 		bl	BuzzerPWM_Stop
  49              	.LVL2:
  44:BuzzerImp.c   ****   BuzzerPWM_Start();                                            //Now start the buzzer
  50              		.loc 1 44 0
  51 0012 FFF7FEFF 		bl	BuzzerPWM_Start
  52              	.LVL3:
  45:BuzzerImp.c   ****   BuzzerStatus = ON;                                                  //Set the value of status to 
  53              		.loc 1 45 0
  54 0016 0123     		movs	r3, #1
  55 0018 2372     		strb	r3, [r4, #8]
  46:BuzzerImp.c   ****   
  47:BuzzerImp.c   ****   BuzzerBeepIsSetFlag = TRUE;
  56              		.loc 1 47 0
  57 001a 6372     		strb	r3, [r4, #9]
  48:BuzzerImp.c   **** }
  58              		.loc 1 48 0
  59              		@ sp needed
  60              	.LVL4:
  61 001c 70BD     		pop	{r4, r5, r6, pc}
  62              	.L3:
  63 001e C046     		.align	2
  64              	.L2:
  65 0020 00000000 		.word	.LANCHOR0
  66              		.cfi_endproc
ARM GAS  C:\Users\YEHUDA~1\AppData\Local\Temp\cc7EWhT8.s 			page 3


  67              	.LFE35:
  68              		.size	BuzzerBeepStart, .-BuzzerBeepStart
  69              		.section	.text.BuzzerBeepStop,"ax",%progbits
  70              		.align	2
  71              		.global	BuzzerBeepStop
  72              		.code	16
  73              		.thumb_func
  74              		.type	BuzzerBeepStop, %function
  75              	BuzzerBeepStop:
  76              	.LFB36:
  49:BuzzerImp.c   **** 
  50:BuzzerImp.c   **** 
  51:BuzzerImp.c   **** /**************************************************************
  52:BuzzerImp.c   **** * Name: BuzzerBeepStop
  53:BuzzerImp.c   **** * Parameters[in]: None
  54:BuzzerImp.c   **** * Return: None
  55:BuzzerImp.c   **** * Description: This function the beep set by BuzzerBeepStart
  56:BuzzerImp.c   **** * fucntion
  57:BuzzerImp.c   **** 
  58:BuzzerImp.c   **** ************************************************************/
  59:BuzzerImp.c   **** void BuzzerBeepStop(void)
  60:BuzzerImp.c   **** {
  77              		.loc 1 60 0
  78              		.cfi_startproc
  79              		@ args = 0, pretend = 0, frame = 0
  80              		@ frame_needed = 0, uses_anonymous_args = 0
  81 0000 10B5     		push	{r4, lr}
  82              		.cfi_def_cfa_offset 8
  83              		.cfi_offset 4, -8
  84              		.cfi_offset 14, -4
  61:BuzzerImp.c   ****   BuzzerPWM_Stop();
  85              		.loc 1 61 0
  86 0002 FFF7FEFF 		bl	BuzzerPWM_Stop
  87              	.LVL5:
  62:BuzzerImp.c   ****   BuzzerStatus = OFF;
  88              		.loc 1 62 0
  89 0006 024B     		ldr	r3, .L5
  90 0008 0022     		movs	r2, #0
  91 000a 1A72     		strb	r2, [r3, #8]
  63:BuzzerImp.c   ****   BuzzerBeepIsSetFlag = FALSE;
  92              		.loc 1 63 0
  93 000c 5A72     		strb	r2, [r3, #9]
  64:BuzzerImp.c   **** }
  94              		.loc 1 64 0
  95              		@ sp needed
  96 000e 10BD     		pop	{r4, pc}
  97              	.L6:
  98              		.align	2
  99              	.L5:
 100 0010 00000000 		.word	.LANCHOR0
 101              		.cfi_endproc
 102              	.LFE36:
 103              		.size	BuzzerBeepStop, .-BuzzerBeepStop
 104              		.section	.text.BuzzerBeepReload,"ax",%progbits
 105              		.align	2
 106              		.global	BuzzerBeepReload
 107              		.code	16
ARM GAS  C:\Users\YEHUDA~1\AppData\Local\Temp\cc7EWhT8.s 			page 4


 108              		.thumb_func
 109              		.type	BuzzerBeepReload, %function
 110              	BuzzerBeepReload:
 111              	.LFB37:
  65:BuzzerImp.c   **** 
  66:BuzzerImp.c   **** 
  67:BuzzerImp.c   **** /**************************************************************
  68:BuzzerImp.c   **** * Name: BuzzerBeepReload
  69:BuzzerImp.c   **** * Parameters[in]: None
  70:BuzzerImp.c   **** * Return: None
  71:BuzzerImp.c   **** * Description: This function reload the value for the timer
  72:BuzzerImp.c   **** * of the buzzer and update the value of the status flag
  73:BuzzerImp.c   **** 
  74:BuzzerImp.c   **** ************************************************************/
  75:BuzzerImp.c   **** void BuzzerBeepReload(void)
  76:BuzzerImp.c   **** {
 112              		.loc 1 76 0
 113              		.cfi_startproc
 114              		@ args = 0, pretend = 0, frame = 0
 115              		@ frame_needed = 0, uses_anonymous_args = 0
 116 0000 10B5     		push	{r4, lr}
 117              		.cfi_def_cfa_offset 8
 118              		.cfi_offset 4, -8
 119              		.cfi_offset 14, -4
  77:BuzzerImp.c   ****   TimeSample4Buzzer = SysTickGet();
 120              		.loc 1 77 0
 121 0002 FFF7FEFF 		bl	SysTickGet
 122              	.LVL6:
 123 0006 0B4B     		ldr	r3, .L10
 124 0008 1860     		str	r0, [r3]
  78:BuzzerImp.c   ****   if(BuzzerBeepIsSetFlag == TRUE)
 125              		.loc 1 78 0
 126 000a 5B7A     		ldrb	r3, [r3, #9]
 127 000c 012B     		cmp	r3, #1
 128 000e 10D1     		bne	.L7
  79:BuzzerImp.c   ****   {
  80:BuzzerImp.c   ****     if(BuzzerStatus == ON)
 129              		.loc 1 80 0
 130 0010 084B     		ldr	r3, .L10
 131 0012 1B7A     		ldrb	r3, [r3, #8]
 132 0014 012B     		cmp	r3, #1
 133 0016 05D1     		bne	.L9
  81:BuzzerImp.c   ****     {
  82:BuzzerImp.c   ****       BuzzerStatus = OFF;
 134              		.loc 1 82 0
 135 0018 0022     		movs	r2, #0
 136 001a 064B     		ldr	r3, .L10
 137 001c 1A72     		strb	r2, [r3, #8]
  83:BuzzerImp.c   ****       BuzzerPWM_Stop();
 138              		.loc 1 83 0
 139 001e FFF7FEFF 		bl	BuzzerPWM_Stop
 140              	.LVL7:
 141 0022 06E0     		b	.L7
 142              	.L9:
  84:BuzzerImp.c   ****     }
  85:BuzzerImp.c   ****     else if(BuzzerStatus == OFF)
 143              		.loc 1 85 0
ARM GAS  C:\Users\YEHUDA~1\AppData\Local\Temp\cc7EWhT8.s 			page 5


 144 0024 002B     		cmp	r3, #0
 145 0026 04D1     		bne	.L7
  86:BuzzerImp.c   ****     {
  87:BuzzerImp.c   ****       BuzzerStatus = ON;
 146              		.loc 1 87 0
 147 0028 0122     		movs	r2, #1
 148 002a 024B     		ldr	r3, .L10
 149 002c 1A72     		strb	r2, [r3, #8]
  88:BuzzerImp.c   ****       BuzzerPWM_Start();
 150              		.loc 1 88 0
 151 002e FFF7FEFF 		bl	BuzzerPWM_Start
 152              	.LVL8:
 153              	.L7:
  89:BuzzerImp.c   ****     }
  90:BuzzerImp.c   ****   }
  91:BuzzerImp.c   **** }
 154              		.loc 1 91 0
 155              		@ sp needed
 156 0032 10BD     		pop	{r4, pc}
 157              	.L11:
 158              		.align	2
 159              	.L10:
 160 0034 00000000 		.word	.LANCHOR0
 161              		.cfi_endproc
 162              	.LFE37:
 163              		.size	BuzzerBeepReload, .-BuzzerBeepReload
 164              		.section	.text.BuzzerBeepGetClockVal,"ax",%progbits
 165              		.align	2
 166              		.global	BuzzerBeepGetClockVal
 167              		.code	16
 168              		.thumb_func
 169              		.type	BuzzerBeepGetClockVal, %function
 170              	BuzzerBeepGetClockVal:
 171              	.LFB38:
  92:BuzzerImp.c   **** 
  93:BuzzerImp.c   **** 
  94:BuzzerImp.c   **** 
  95:BuzzerImp.c   **** /**************************************************************
  96:BuzzerImp.c   **** * Name: BuzzerBeepGetClockVal
  97:BuzzerImp.c   **** * Parameters[in]: uint32_t CurrenTime
  98:BuzzerImp.c   **** * Return: None
  99:BuzzerImp.c   **** * Description: This function receive the current time of the 
 100:BuzzerImp.c   **** * tick timer and compare it with value sampled last time.
 101:BuzzerImp.c   **** 
 102:BuzzerImp.c   **** ************************************************************/
 103:BuzzerImp.c   **** void BuzzerBeepGetClockVal(uint32_t CurrenTime)
 104:BuzzerImp.c   **** {
 172              		.loc 1 104 0
 173              		.cfi_startproc
 174              		@ args = 0, pretend = 0, frame = 0
 175              		@ frame_needed = 0, uses_anonymous_args = 0
 176              	.LVL9:
 177 0000 10B5     		push	{r4, lr}
 178              		.cfi_def_cfa_offset 8
 179              		.cfi_offset 4, -8
 180              		.cfi_offset 14, -4
 105:BuzzerImp.c   ****   if(CurrenTime - TimeSample4Buzzer > BuzzerLocalInterval)
ARM GAS  C:\Users\YEHUDA~1\AppData\Local\Temp\cc7EWhT8.s 			page 6


 181              		.loc 1 105 0
 182 0002 044B     		ldr	r3, .L14
 183 0004 1A68     		ldr	r2, [r3]
 184 0006 801A     		subs	r0, r0, r2
 185              	.LVL10:
 186 0008 5B68     		ldr	r3, [r3, #4]
 187 000a 9842     		cmp	r0, r3
 188 000c 01D9     		bls	.L12
 106:BuzzerImp.c   ****   {
 107:BuzzerImp.c   ****     BuzzerBeepReload();
 189              		.loc 1 107 0
 190 000e FFF7FEFF 		bl	BuzzerBeepReload
 191              	.LVL11:
 192              	.L12:
 108:BuzzerImp.c   ****   }
 109:BuzzerImp.c   **** }
 193              		.loc 1 109 0
 194              		@ sp needed
 195 0012 10BD     		pop	{r4, pc}
 196              	.L15:
 197              		.align	2
 198              	.L14:
 199 0014 00000000 		.word	.LANCHOR0
 200              		.cfi_endproc
 201              	.LFE38:
 202              		.size	BuzzerBeepGetClockVal, .-BuzzerBeepGetClockVal
 203              		.section	.text.BuzzerActive,"ax",%progbits
 204              		.align	2
 205              		.global	BuzzerActive
 206              		.code	16
 207              		.thumb_func
 208              		.type	BuzzerActive, %function
 209              	BuzzerActive:
 210              	.LFB39:
 110:BuzzerImp.c   **** 
 111:BuzzerImp.c   **** 
 112:BuzzerImp.c   **** /**************************************************************
 113:BuzzerImp.c   **** * Name: BuzzerActive
 114:BuzzerImp.c   **** * Parameters[in]: uint32_t Interval
 115:BuzzerImp.c   **** * Return: None
 116:BuzzerImp.c   **** * Description: This function activate the buzzer for Interval
 117:BuzzerImp.c   **** * period of time, with blocking.
 118:BuzzerImp.c   **** 
 119:BuzzerImp.c   **** ************************************************************/
 120:BuzzerImp.c   **** void BuzzerActive(uint32_t Interval)
 121:BuzzerImp.c   **** {
 211              		.loc 1 121 0
 212              		.cfi_startproc
 213              		@ args = 0, pretend = 0, frame = 0
 214              		@ frame_needed = 0, uses_anonymous_args = 0
 215              	.LVL12:
 216 0000 10B5     		push	{r4, lr}
 217              		.cfi_def_cfa_offset 8
 218              		.cfi_offset 4, -8
 219              		.cfi_offset 14, -4
 220 0002 0400     		movs	r4, r0
 122:BuzzerImp.c   ****   BuzzerPWM_Start();
ARM GAS  C:\Users\YEHUDA~1\AppData\Local\Temp\cc7EWhT8.s 			page 7


 221              		.loc 1 122 0
 222 0004 FFF7FEFF 		bl	BuzzerPWM_Start
 223              	.LVL13:
 123:BuzzerImp.c   ****   CyDelay(Interval);
 224              		.loc 1 123 0
 225 0008 2000     		movs	r0, r4
 226 000a FFF7FEFF 		bl	CyDelay
 227              	.LVL14:
 124:BuzzerImp.c   ****   BuzzerPWM_Stop();
 228              		.loc 1 124 0
 229 000e FFF7FEFF 		bl	BuzzerPWM_Stop
 230              	.LVL15:
 125:BuzzerImp.c   **** }
 231              		.loc 1 125 0
 232              		@ sp needed
 233              	.LVL16:
 234 0012 10BD     		pop	{r4, pc}
 235              		.cfi_endproc
 236              	.LFE39:
 237              		.size	BuzzerActive, .-BuzzerActive
 238              		.bss
 239              		.align	2
 240              		.set	.LANCHOR0,. + 0
 241              		.type	TimeSample4Buzzer, %object
 242              		.size	TimeSample4Buzzer, 4
 243              	TimeSample4Buzzer:
 244 0000 00000000 		.space	4
 245              		.type	BuzzerLocalInterval, %object
 246              		.size	BuzzerLocalInterval, 4
 247              	BuzzerLocalInterval:
 248 0004 00000000 		.space	4
 249              		.type	BuzzerStatus, %object
 250              		.size	BuzzerStatus, 1
 251              	BuzzerStatus:
 252 0008 00       		.space	1
 253              		.type	BuzzerBeepIsSetFlag, %object
 254              		.size	BuzzerBeepIsSetFlag, 1
 255              	BuzzerBeepIsSetFlag:
 256 0009 00       		.space	1
 257              		.text
 258              	.Letext0:
 259              		.file 2 "c:\\program files (x86)\\cypress\\psoc creator\\4.2\\psoc creator\\import\\gnu\\arm\\5.4.
 260              		.file 3 "c:\\program files (x86)\\cypress\\psoc creator\\4.2\\psoc creator\\import\\gnu\\arm\\5.4.
 261              		.file 4 "main.h"
 262              		.file 5 "Generated_Source\\PSoC4/BuzzerPWM.h"
 263              		.file 6 "Generated_Source\\PSoC4/CyLib.h"
 264              		.file 7 "Generated_Source\\PSoC4/BLE_Stack.h"