ARM GAS  C:\Users\YEHUDA~1\AppData\Local\Temp\cc5Fj9qk.s 			page 1


   1              		.syntax unified
   2              		.cpu cortex-m0
   3              		.fpu softvfp
   4              		.eabi_attribute 20, 1
   5              		.eabi_attribute 21, 1
   6              		.eabi_attribute 23, 3
   7              		.eabi_attribute 24, 1
   8              		.eabi_attribute 25, 1
   9              		.eabi_attribute 26, 1
  10              		.eabi_attribute 30, 1
  11              		.eabi_attribute 34, 0
  12              		.eabi_attribute 18, 4
  13              		.thumb
  14              		.syntax unified
  15              		.file	"LEDs.c"
  16              		.text
  17              	.Ltext0:
  18              		.cfi_sections	.debug_frame
  19              		.section	.text.LED_BlinkStart,"ax",%progbits
  20              		.align	2
  21              		.global	LED_BlinkStart
  22              		.code	16
  23              		.thumb_func
  24              		.type	LED_BlinkStart, %function
  25              	LED_BlinkStart:
  26              	.LFB35:
  27              		.file 1 "LEDs.c"
   1:LEDs.c        **** /* ========================================
   2:LEDs.c        ****  *
   3:LEDs.c        ****  * Copyright Yehuda Ben Chaim, 2018
   4:LEDs.c        ****  * All Rights Reserved
   5:LEDs.c        ****  * UNPUBLISHED, LICENSED SOFTWARE.
   6:LEDs.c        ****  *
   7:LEDs.c        ****  * CONFIDENTIAL AND PROPRIETARY INFORMATION
   8:LEDs.c        ****  * WHICH IS THE PROPERTY OF Yehuda Ben Chaim.
   9:LEDs.c        ****  *
  10:LEDs.c        ****  * ========================================
  11:LEDs.c        **** */
  12:LEDs.c        **** 
  13:LEDs.c        **** /**** Includes ****************************************/
  14:LEDs.c        **** #include "LEDs.h"
  15:LEDs.c        **** #include "RedLED.h"
  16:LEDs.c        **** #include "GreenLED.h"
  17:LEDs.c        **** #include "YellowLED.h"
  18:LEDs.c        **** /**** Private Defines *********************************/
  19:LEDs.c        **** 
  20:LEDs.c        **** /**** Private Typdefs *********************************/
  21:LEDs.c        **** /*Green LED*/
  22:LEDs.c        **** static uint32_t TimeSample4GreenLED = 0;
  23:LEDs.c        **** static uint8_t GreenLED_Status = OFF;
  24:LEDs.c        **** static uint8_t GreenLED_BlinkIsSetFlag = FALSE;
  25:LEDs.c        **** static uint32_t GreenLED_LocalInterval = 0;
  26:LEDs.c        **** 
  27:LEDs.c        **** /*Red LED*/
  28:LEDs.c        **** static uint32_t TimeSample4RedLED = 0;
  29:LEDs.c        **** static uint8_t RedLED_Status = OFF;
  30:LEDs.c        **** static uint8_t RedLED_BlinkIsSetFlag = FALSE;
ARM GAS  C:\Users\YEHUDA~1\AppData\Local\Temp\cc5Fj9qk.s 			page 2


  31:LEDs.c        **** static uint32_t RedLED_LocalInterval = 0;
  32:LEDs.c        **** 
  33:LEDs.c        **** /*Yellow LED*/
  34:LEDs.c        **** static uint32_t TimeSample4YellowLED = 0;
  35:LEDs.c        **** static uint8_t YellowLED_Status = OFF;
  36:LEDs.c        **** static uint8_t YellowLED_BlinkIsSetFlag = FALSE;
  37:LEDs.c        **** static uint32_t YellowLED_LocalInterval = 0;
  38:LEDs.c        **** 
  39:LEDs.c        **** 
  40:LEDs.c        **** 
  41:LEDs.c        **** /**** Private functions decleration *******************/
  42:LEDs.c        **** 
  43:LEDs.c        **** /**** Private functions *******************************/
  44:LEDs.c        **** 
  45:LEDs.c        **** 
  46:LEDs.c        **** /**************************************************************
  47:LEDs.c        **** * Name: LED_BlinkStart
  48:LEDs.c        **** * Parameters[in]: uint32_t Interval
  49:LEDs.c        **** * Return: None
  50:LEDs.c        **** * Description: This function sets a repeatable blink with interval
  51:LEDs.c        **** * set by the user. To stop the operation, call LED_BlinkStop() funcion.
  52:LEDs.c        **** 
  53:LEDs.c        **** ************************************************************/
  54:LEDs.c        **** void LED_BlinkStart(uint32_t Interval, uint8_t Color)
  55:LEDs.c        **** {                                                  
  28              		.loc 1 55 0
  29              		.cfi_startproc
  30              		@ args = 0, pretend = 0, frame = 0
  31              		@ frame_needed = 0, uses_anonymous_args = 0
  32              	.LVL0:
  33 0000 10B5     		push	{r4, lr}
  34              		.cfi_def_cfa_offset 8
  35              		.cfi_offset 4, -8
  36              		.cfi_offset 14, -4
  56:LEDs.c        ****   if(Color == GREEN_LED)
  37              		.loc 1 56 0
  38 0002 0029     		cmp	r1, #0
  39 0004 0BD1     		bne	.L2
  57:LEDs.c        ****   {
  58:LEDs.c        ****     GreenLED_LocalInterval = Interval; 
  40              		.loc 1 58 0
  41 0006 154C     		ldr	r4, .L5
  42 0008 2060     		str	r0, [r4]
  59:LEDs.c        ****     TimeSample4GreenLED = SysTickGet();
  43              		.loc 1 59 0
  44 000a FFF7FEFF 		bl	SysTickGet
  45              	.LVL1:
  46 000e 6060     		str	r0, [r4, #4]
  60:LEDs.c        ****     GreenLED_Write(ON);
  47              		.loc 1 60 0
  48 0010 0120     		movs	r0, #1
  49 0012 FFF7FEFF 		bl	GreenLED_Write
  50              	.LVL2:
  61:LEDs.c        ****     GreenLED_Status = ON;
  51              		.loc 1 61 0
  52 0016 0123     		movs	r3, #1
  53 0018 2372     		strb	r3, [r4, #8]
ARM GAS  C:\Users\YEHUDA~1\AppData\Local\Temp\cc5Fj9qk.s 			page 3


  62:LEDs.c        ****     GreenLED_BlinkIsSetFlag = TRUE;
  54              		.loc 1 62 0
  55 001a 6372     		strb	r3, [r4, #9]
  56 001c 1CE0     		b	.L1
  57              	.LVL3:
  58              	.L2:
  63:LEDs.c        ****   }
  64:LEDs.c        ****   else if(Color == YELLOW_LED)
  59              		.loc 1 64 0
  60 001e 0129     		cmp	r1, #1
  61 0020 0BD1     		bne	.L4
  65:LEDs.c        ****   {
  66:LEDs.c        ****     YellowLED_LocalInterval = Interval; 
  62              		.loc 1 66 0
  63 0022 0E4C     		ldr	r4, .L5
  64 0024 E060     		str	r0, [r4, #12]
  67:LEDs.c        ****     TimeSample4YellowLED = SysTickGet();
  65              		.loc 1 67 0
  66 0026 FFF7FEFF 		bl	SysTickGet
  67              	.LVL4:
  68 002a 2061     		str	r0, [r4, #16]
  68:LEDs.c        ****     YellowLED_Write(ON);
  69              		.loc 1 68 0
  70 002c 0120     		movs	r0, #1
  71 002e FFF7FEFF 		bl	YellowLED_Write
  72              	.LVL5:
  69:LEDs.c        ****     YellowLED_Status = ON;
  73              		.loc 1 69 0
  74 0032 0123     		movs	r3, #1
  75 0034 2375     		strb	r3, [r4, #20]
  70:LEDs.c        ****     YellowLED_BlinkIsSetFlag = TRUE;
  76              		.loc 1 70 0
  77 0036 6375     		strb	r3, [r4, #21]
  78 0038 0EE0     		b	.L1
  79              	.LVL6:
  80              	.L4:
  71:LEDs.c        ****   }
  72:LEDs.c        ****   else if(Color == RED_LED)
  81              		.loc 1 72 0
  82 003a 0229     		cmp	r1, #2
  83 003c 0CD1     		bne	.L1
  73:LEDs.c        ****   {
  74:LEDs.c        ****     RedLED_LocalInterval = Interval; 
  84              		.loc 1 74 0
  85 003e 074C     		ldr	r4, .L5
  86 0040 A061     		str	r0, [r4, #24]
  75:LEDs.c        ****     TimeSample4RedLED = SysTickGet();
  87              		.loc 1 75 0
  88 0042 FFF7FEFF 		bl	SysTickGet
  89              	.LVL7:
  90 0046 E061     		str	r0, [r4, #28]
  76:LEDs.c        ****     RedLED_Write(ON);
  91              		.loc 1 76 0
  92 0048 0120     		movs	r0, #1
  93 004a FFF7FEFF 		bl	RedLED_Write
  94              	.LVL8:
  77:LEDs.c        ****     RedLED_Status = ON;
ARM GAS  C:\Users\YEHUDA~1\AppData\Local\Temp\cc5Fj9qk.s 			page 4


  95              		.loc 1 77 0
  96 004e 0123     		movs	r3, #1
  97 0050 2022     		movs	r2, #32
  98 0052 A354     		strb	r3, [r4, r2]
  78:LEDs.c        ****     RedLED_BlinkIsSetFlag = TRUE;
  99              		.loc 1 78 0
 100 0054 0132     		adds	r2, r2, #1
 101 0056 A354     		strb	r3, [r4, r2]
 102              	.L1:
  79:LEDs.c        ****   }
  80:LEDs.c        **** }
 103              		.loc 1 80 0
 104              		@ sp needed
 105 0058 10BD     		pop	{r4, pc}
 106              	.L6:
 107 005a C046     		.align	2
 108              	.L5:
 109 005c 00000000 		.word	.LANCHOR0
 110              		.cfi_endproc
 111              	.LFE35:
 112              		.size	LED_BlinkStart, .-LED_BlinkStart
 113              		.section	.text.LED_BlinkStop,"ax",%progbits
 114              		.align	2
 115              		.global	LED_BlinkStop
 116              		.code	16
 117              		.thumb_func
 118              		.type	LED_BlinkStop, %function
 119              	LED_BlinkStop:
 120              	.LFB36:
  81:LEDs.c        **** 
  82:LEDs.c        **** 
  83:LEDs.c        **** /**************************************************************
  84:LEDs.c        **** * Name: LED_BlinkStop
  85:LEDs.c        **** * Parameters[in]: uint8_t Color
  86:LEDs.c        **** * Return: None
  87:LEDs.c        **** * Description: This function stop LEDs color from blinking
  88:LEDs.c        **** * fucntion
  89:LEDs.c        **** 
  90:LEDs.c        **** ************************************************************/
  91:LEDs.c        **** void LED_BlinkStop(uint8_t Color)
  92:LEDs.c        **** {
 121              		.loc 1 92 0
 122              		.cfi_startproc
 123              		@ args = 0, pretend = 0, frame = 0
 124              		@ frame_needed = 0, uses_anonymous_args = 0
 125              	.LVL9:
 126 0000 10B5     		push	{r4, lr}
 127              		.cfi_def_cfa_offset 8
 128              		.cfi_offset 4, -8
 129              		.cfi_offset 14, -4
  93:LEDs.c        ****   if(Color == GREEN_LED)
 130              		.loc 1 93 0
 131 0002 0028     		cmp	r0, #0
 132 0004 06D1     		bne	.L8
  94:LEDs.c        ****   {
  95:LEDs.c        ****     GreenLED_Write(OFF);
 133              		.loc 1 95 0
ARM GAS  C:\Users\YEHUDA~1\AppData\Local\Temp\cc5Fj9qk.s 			page 5


 134 0006 FFF7FEFF 		bl	GreenLED_Write
 135              	.LVL10:
  96:LEDs.c        ****     GreenLED_Status = OFF;
 136              		.loc 1 96 0
 137 000a 0D4B     		ldr	r3, .L11
 138 000c 0022     		movs	r2, #0
 139 000e 1A72     		strb	r2, [r3, #8]
  97:LEDs.c        ****     GreenLED_BlinkIsSetFlag = FALSE;
 140              		.loc 1 97 0
 141 0010 5A72     		strb	r2, [r3, #9]
 142 0012 14E0     		b	.L7
 143              	.LVL11:
 144              	.L8:
  98:LEDs.c        ****   }
  99:LEDs.c        ****   else if(Color == YELLOW_LED)
 145              		.loc 1 99 0
 146 0014 0128     		cmp	r0, #1
 147 0016 07D1     		bne	.L10
 100:LEDs.c        ****   {
 101:LEDs.c        ****     YellowLED_Write(OFF);
 148              		.loc 1 101 0
 149 0018 0020     		movs	r0, #0
 150              	.LVL12:
 151 001a FFF7FEFF 		bl	YellowLED_Write
 152              	.LVL13:
 102:LEDs.c        ****     YellowLED_Status = OFF;
 153              		.loc 1 102 0
 154 001e 084B     		ldr	r3, .L11
 155 0020 0022     		movs	r2, #0
 156 0022 1A75     		strb	r2, [r3, #20]
 103:LEDs.c        ****     YellowLED_BlinkIsSetFlag = FALSE;
 157              		.loc 1 103 0
 158 0024 5A75     		strb	r2, [r3, #21]
 159 0026 0AE0     		b	.L7
 160              	.LVL14:
 161              	.L10:
 104:LEDs.c        ****   }
 105:LEDs.c        ****   else if(Color == RED_LED)
 162              		.loc 1 105 0
 163 0028 0228     		cmp	r0, #2
 164 002a 08D1     		bne	.L7
 106:LEDs.c        ****   {
 107:LEDs.c        ****     RedLED_Write(OFF);
 165              		.loc 1 107 0
 166 002c 0020     		movs	r0, #0
 167              	.LVL15:
 168 002e FFF7FEFF 		bl	RedLED_Write
 169              	.LVL16:
 108:LEDs.c        ****     RedLED_Status = OFF;
 170              		.loc 1 108 0
 171 0032 034B     		ldr	r3, .L11
 172 0034 0022     		movs	r2, #0
 173 0036 2021     		movs	r1, #32
 174 0038 5A54     		strb	r2, [r3, r1]
 109:LEDs.c        ****     RedLED_BlinkIsSetFlag = FALSE;
 175              		.loc 1 109 0
 176 003a 0131     		adds	r1, r1, #1
ARM GAS  C:\Users\YEHUDA~1\AppData\Local\Temp\cc5Fj9qk.s 			page 6


 177 003c 5A54     		strb	r2, [r3, r1]
 178              	.L7:
 110:LEDs.c        ****   }
 111:LEDs.c        **** }
 179              		.loc 1 111 0
 180              		@ sp needed
 181 003e 10BD     		pop	{r4, pc}
 182              	.L12:
 183              		.align	2
 184              	.L11:
 185 0040 00000000 		.word	.LANCHOR0
 186              		.cfi_endproc
 187              	.LFE36:
 188              		.size	LED_BlinkStop, .-LED_BlinkStop
 189              		.section	.text.LED_BlinkReload,"ax",%progbits
 190              		.align	2
 191              		.global	LED_BlinkReload
 192              		.code	16
 193              		.thumb_func
 194              		.type	LED_BlinkReload, %function
 195              	LED_BlinkReload:
 196              	.LFB37:
 112:LEDs.c        **** 
 113:LEDs.c        **** 
 114:LEDs.c        **** /**************************************************************
 115:LEDs.c        **** * Name: LED_BlinkReload
 116:LEDs.c        **** * Parameters[in]: uint8_t Color
 117:LEDs.c        **** * Return: None
 118:LEDs.c        **** * Description: This function reload the value for the timer
 119:LEDs.c        **** * of the current LED and update the value of the status flag
 120:LEDs.c        **** 
 121:LEDs.c        **** ************************************************************/
 122:LEDs.c        **** void LED_BlinkReload(uint8_t Color)
 123:LEDs.c        **** {
 197              		.loc 1 123 0
 198              		.cfi_startproc
 199              		@ args = 0, pretend = 0, frame = 0
 200              		@ frame_needed = 0, uses_anonymous_args = 0
 201              	.LVL17:
 202 0000 10B5     		push	{r4, lr}
 203              		.cfi_def_cfa_offset 8
 204              		.cfi_offset 4, -8
 205              		.cfi_offset 14, -4
 124:LEDs.c        ****   if(Color == GREEN_LED)
 206              		.loc 1 124 0
 207 0002 0028     		cmp	r0, #0
 208 0004 1AD1     		bne	.L14
 125:LEDs.c        ****   {
 126:LEDs.c        ****     TimeSample4GreenLED = SysTickGet();
 209              		.loc 1 126 0
 210 0006 FFF7FEFF 		bl	SysTickGet
 211              	.LVL18:
 212 000a 2B4B     		ldr	r3, .L20
 213 000c 5860     		str	r0, [r3, #4]
 127:LEDs.c        ****     if(GreenLED_BlinkIsSetFlag == TRUE)
 214              		.loc 1 127 0
 215 000e 5B7A     		ldrb	r3, [r3, #9]
ARM GAS  C:\Users\YEHUDA~1\AppData\Local\Temp\cc5Fj9qk.s 			page 7


 216 0010 012B     		cmp	r3, #1
 217 0012 4FD1     		bne	.L13
 128:LEDs.c        ****     {
 129:LEDs.c        ****       if(GreenLED_Status == ON)
 218              		.loc 1 129 0
 219 0014 284B     		ldr	r3, .L20
 220 0016 1B7A     		ldrb	r3, [r3, #8]
 221 0018 012B     		cmp	r3, #1
 222 001a 06D1     		bne	.L16
 130:LEDs.c        ****       {
 131:LEDs.c        ****         GreenLED_Status = OFF;
 223              		.loc 1 131 0
 224 001c 0022     		movs	r2, #0
 225 001e 264B     		ldr	r3, .L20
 226 0020 1A72     		strb	r2, [r3, #8]
 132:LEDs.c        ****         GreenLED_Write(OFF);
 227              		.loc 1 132 0
 228 0022 0020     		movs	r0, #0
 229 0024 FFF7FEFF 		bl	GreenLED_Write
 230              	.LVL19:
 231 0028 44E0     		b	.L13
 232              	.L16:
 133:LEDs.c        ****       }
 134:LEDs.c        ****       else if(GreenLED_Status == OFF)
 233              		.loc 1 134 0
 234 002a 002B     		cmp	r3, #0
 235 002c 42D1     		bne	.L13
 135:LEDs.c        ****       {
 136:LEDs.c        ****         GreenLED_Status = ON;
 236              		.loc 1 136 0
 237 002e 0122     		movs	r2, #1
 238 0030 214B     		ldr	r3, .L20
 239 0032 1A72     		strb	r2, [r3, #8]
 137:LEDs.c        ****         GreenLED_Write(ON);
 240              		.loc 1 137 0
 241 0034 0120     		movs	r0, #1
 242 0036 FFF7FEFF 		bl	GreenLED_Write
 243              	.LVL20:
 244 003a 3BE0     		b	.L13
 245              	.LVL21:
 246              	.L14:
 138:LEDs.c        ****       }
 139:LEDs.c        ****     }
 140:LEDs.c        ****   }
 141:LEDs.c        ****   else if(Color == YELLOW_LED)
 247              		.loc 1 141 0
 248 003c 0128     		cmp	r0, #1
 249 003e 1AD1     		bne	.L17
 142:LEDs.c        ****   {
 143:LEDs.c        ****     TimeSample4YellowLED = SysTickGet();
 250              		.loc 1 143 0
 251 0040 FFF7FEFF 		bl	SysTickGet
 252              	.LVL22:
 253 0044 1C4B     		ldr	r3, .L20
 254 0046 1861     		str	r0, [r3, #16]
 144:LEDs.c        ****     if(YellowLED_BlinkIsSetFlag == TRUE)
 255              		.loc 1 144 0
ARM GAS  C:\Users\YEHUDA~1\AppData\Local\Temp\cc5Fj9qk.s 			page 8


 256 0048 5B7D     		ldrb	r3, [r3, #21]
 257 004a 012B     		cmp	r3, #1
 258 004c 32D1     		bne	.L13
 145:LEDs.c        ****     {
 146:LEDs.c        ****       if(YellowLED_Status == ON)
 259              		.loc 1 146 0
 260 004e 1A4B     		ldr	r3, .L20
 261 0050 1B7D     		ldrb	r3, [r3, #20]
 262 0052 012B     		cmp	r3, #1
 263 0054 06D1     		bne	.L18
 147:LEDs.c        ****       {
 148:LEDs.c        ****         YellowLED_Status = OFF;
 264              		.loc 1 148 0
 265 0056 0022     		movs	r2, #0
 266 0058 174B     		ldr	r3, .L20
 267 005a 1A75     		strb	r2, [r3, #20]
 149:LEDs.c        ****         YellowLED_Write(OFF);
 268              		.loc 1 149 0
 269 005c 0020     		movs	r0, #0
 270 005e FFF7FEFF 		bl	YellowLED_Write
 271              	.LVL23:
 272 0062 27E0     		b	.L13
 273              	.L18:
 150:LEDs.c        ****       }
 151:LEDs.c        ****       else if(YellowLED_Status == OFF)
 274              		.loc 1 151 0
 275 0064 002B     		cmp	r3, #0
 276 0066 25D1     		bne	.L13
 152:LEDs.c        ****       {
 153:LEDs.c        ****         YellowLED_Status = ON;
 277              		.loc 1 153 0
 278 0068 0122     		movs	r2, #1
 279 006a 134B     		ldr	r3, .L20
 280 006c 1A75     		strb	r2, [r3, #20]
 154:LEDs.c        ****         YellowLED_Write(ON);
 281              		.loc 1 154 0
 282 006e 0120     		movs	r0, #1
 283 0070 FFF7FEFF 		bl	YellowLED_Write
 284              	.LVL24:
 285 0074 1EE0     		b	.L13
 286              	.LVL25:
 287              	.L17:
 155:LEDs.c        ****       }
 156:LEDs.c        ****     }
 157:LEDs.c        ****   }
 158:LEDs.c        ****   else if(Color == RED_LED)
 288              		.loc 1 158 0
 289 0076 0228     		cmp	r0, #2
 290 0078 1CD1     		bne	.L13
 159:LEDs.c        ****   {
 160:LEDs.c        ****     TimeSample4RedLED = SysTickGet();
 291              		.loc 1 160 0
 292 007a FFF7FEFF 		bl	SysTickGet
 293              	.LVL26:
 294 007e 0E4B     		ldr	r3, .L20
 295 0080 D861     		str	r0, [r3, #28]
 161:LEDs.c        ****     if(RedLED_BlinkIsSetFlag == TRUE)
ARM GAS  C:\Users\YEHUDA~1\AppData\Local\Temp\cc5Fj9qk.s 			page 9


 296              		.loc 1 161 0
 297 0082 2122     		movs	r2, #33
 298 0084 9B5C     		ldrb	r3, [r3, r2]
 299 0086 012B     		cmp	r3, #1
 300 0088 14D1     		bne	.L13
 162:LEDs.c        ****     {
 163:LEDs.c        ****       if(RedLED_Status == ON)
 301              		.loc 1 163 0
 302 008a 1F33     		adds	r3, r3, #31
 303 008c 0A4A     		ldr	r2, .L20
 304 008e D35C     		ldrb	r3, [r2, r3]
 305 0090 012B     		cmp	r3, #1
 306 0092 06D1     		bne	.L19
 164:LEDs.c        ****       {
 165:LEDs.c        ****         RedLED_Status = OFF;
 307              		.loc 1 165 0
 308 0094 0021     		movs	r1, #0
 309 0096 1F33     		adds	r3, r3, #31
 310 0098 D154     		strb	r1, [r2, r3]
 166:LEDs.c        ****         RedLED_Write(OFF);
 311              		.loc 1 166 0
 312 009a 0020     		movs	r0, #0
 313 009c FFF7FEFF 		bl	RedLED_Write
 314              	.LVL27:
 315 00a0 08E0     		b	.L13
 316              	.L19:
 167:LEDs.c        ****       }
 168:LEDs.c        ****       else if(RedLED_Status == OFF)
 317              		.loc 1 168 0
 318 00a2 002B     		cmp	r3, #0
 319 00a4 06D1     		bne	.L13
 169:LEDs.c        ****       {
 170:LEDs.c        ****         RedLED_Status = ON;
 320              		.loc 1 170 0
 321 00a6 0121     		movs	r1, #1
 322 00a8 2033     		adds	r3, r3, #32
 323 00aa 034A     		ldr	r2, .L20
 324 00ac D154     		strb	r1, [r2, r3]
 171:LEDs.c        ****         RedLED_Write(ON);
 325              		.loc 1 171 0
 326 00ae 0120     		movs	r0, #1
 327 00b0 FFF7FEFF 		bl	RedLED_Write
 328              	.LVL28:
 329              	.L13:
 172:LEDs.c        ****       }
 173:LEDs.c        ****     }
 174:LEDs.c        ****   }
 175:LEDs.c        **** }
 330              		.loc 1 175 0
 331              		@ sp needed
 332 00b4 10BD     		pop	{r4, pc}
 333              	.L21:
 334 00b6 C046     		.align	2
 335              	.L20:
 336 00b8 00000000 		.word	.LANCHOR0
 337              		.cfi_endproc
 338              	.LFE37:
ARM GAS  C:\Users\YEHUDA~1\AppData\Local\Temp\cc5Fj9qk.s 			page 10


 339              		.size	LED_BlinkReload, .-LED_BlinkReload
 340              		.section	.text.LED_BlinkpGetClockVal,"ax",%progbits
 341              		.align	2
 342              		.global	LED_BlinkpGetClockVal
 343              		.code	16
 344              		.thumb_func
 345              		.type	LED_BlinkpGetClockVal, %function
 346              	LED_BlinkpGetClockVal:
 347              	.LFB38:
 176:LEDs.c        **** 
 177:LEDs.c        **** 
 178:LEDs.c        **** 
 179:LEDs.c        **** /**************************************************************
 180:LEDs.c        **** * Name: LED_BlinkpGetClockVal
 181:LEDs.c        **** * Parameters[in]: uint32_t CurrenTime
 182:LEDs.c        **** * Return: None
 183:LEDs.c        **** * Description: This function receive the current time of the 
 184:LEDs.c        **** * tick timer and compare it with value sampled last time.
 185:LEDs.c        **** 
 186:LEDs.c        **** ************************************************************/
 187:LEDs.c        **** void LED_BlinkpGetClockVal(uint32_t CurrenTime)
 188:LEDs.c        **** {
 348              		.loc 1 188 0
 349              		.cfi_startproc
 350              		@ args = 0, pretend = 0, frame = 0
 351              		@ frame_needed = 0, uses_anonymous_args = 0
 352              	.LVL29:
 353 0000 10B5     		push	{r4, lr}
 354              		.cfi_def_cfa_offset 8
 355              		.cfi_offset 4, -8
 356              		.cfi_offset 14, -4
 357 0002 0400     		movs	r4, r0
 189:LEDs.c        ****   if(CurrenTime - TimeSample4RedLED > RedLED_LocalInterval)
 358              		.loc 1 189 0
 359 0004 0D4A     		ldr	r2, .L26
 360 0006 D369     		ldr	r3, [r2, #28]
 361 0008 C31A     		subs	r3, r0, r3
 362 000a 9269     		ldr	r2, [r2, #24]
 363 000c 9342     		cmp	r3, r2
 364 000e 02D9     		bls	.L23
 190:LEDs.c        ****   {
 191:LEDs.c        ****     LED_BlinkReload(RED_LED);
 365              		.loc 1 191 0
 366 0010 0220     		movs	r0, #2
 367              	.LVL30:
 368 0012 FFF7FEFF 		bl	LED_BlinkReload
 369              	.LVL31:
 370              	.L23:
 192:LEDs.c        ****   }
 193:LEDs.c        ****   if(CurrenTime - TimeSample4YellowLED > YellowLED_LocalInterval)
 371              		.loc 1 193 0
 372 0016 094A     		ldr	r2, .L26
 373 0018 1369     		ldr	r3, [r2, #16]
 374 001a E31A     		subs	r3, r4, r3
 375 001c D268     		ldr	r2, [r2, #12]
 376 001e 9342     		cmp	r3, r2
 377 0020 02D9     		bls	.L24
ARM GAS  C:\Users\YEHUDA~1\AppData\Local\Temp\cc5Fj9qk.s 			page 11


 194:LEDs.c        ****   {
 195:LEDs.c        ****     LED_BlinkReload(YELLOW_LED);
 378              		.loc 1 195 0
 379 0022 0120     		movs	r0, #1
 380 0024 FFF7FEFF 		bl	LED_BlinkReload
 381              	.LVL32:
 382              	.L24:
 196:LEDs.c        ****   }
 197:LEDs.c        ****   if(CurrenTime - TimeSample4GreenLED > GreenLED_LocalInterval)
 383              		.loc 1 197 0
 384 0028 044B     		ldr	r3, .L26
 385 002a 5A68     		ldr	r2, [r3, #4]
 386 002c A41A     		subs	r4, r4, r2
 387              	.LVL33:
 388 002e 1B68     		ldr	r3, [r3]
 389 0030 9C42     		cmp	r4, r3
 390 0032 02D9     		bls	.L22
 198:LEDs.c        ****   {
 199:LEDs.c        ****     LED_BlinkReload(GREEN_LED);
 391              		.loc 1 199 0
 392 0034 0020     		movs	r0, #0
 393 0036 FFF7FEFF 		bl	LED_BlinkReload
 394              	.LVL34:
 395              	.L22:
 200:LEDs.c        ****   }
 201:LEDs.c        **** }
 396              		.loc 1 201 0
 397              		@ sp needed
 398 003a 10BD     		pop	{r4, pc}
 399              	.L27:
 400              		.align	2
 401              	.L26:
 402 003c 00000000 		.word	.LANCHOR0
 403              		.cfi_endproc
 404              	.LFE38:
 405              		.size	LED_BlinkpGetClockVal, .-LED_BlinkpGetClockVal
 406              		.section	.text.TurnON_LED,"ax",%progbits
 407              		.align	2
 408              		.global	TurnON_LED
 409              		.code	16
 410              		.thumb_func
 411              		.type	TurnON_LED, %function
 412              	TurnON_LED:
 413              	.LFB39:
 202:LEDs.c        **** 
 203:LEDs.c        **** 
 204:LEDs.c        **** 
 205:LEDs.c        **** /**************************************************************
 206:LEDs.c        **** * Name: TurnON_LED
 207:LEDs.c        **** * Parameters[in]: uint8_t Color
 208:LEDs.c        **** * Return: None
 209:LEDs.c        **** * Description: This function turns ON Color led
 210:LEDs.c        **** 
 211:LEDs.c        **** ************************************************************/
 212:LEDs.c        **** void TurnON_LED(uint8_t Color)
 213:LEDs.c        **** {
 414              		.loc 1 213 0
ARM GAS  C:\Users\YEHUDA~1\AppData\Local\Temp\cc5Fj9qk.s 			page 12


 415              		.cfi_startproc
 416              		@ args = 0, pretend = 0, frame = 0
 417              		@ frame_needed = 0, uses_anonymous_args = 0
 418              	.LVL35:
 419 0000 10B5     		push	{r4, lr}
 420              		.cfi_def_cfa_offset 8
 421              		.cfi_offset 4, -8
 422              		.cfi_offset 14, -4
 214:LEDs.c        ****   if(Color == GREEN_LED)
 423              		.loc 1 214 0
 424 0002 0028     		cmp	r0, #0
 425 0004 03D1     		bne	.L29
 215:LEDs.c        ****     GreenLED_Write(ON);
 426              		.loc 1 215 0
 427 0006 0130     		adds	r0, r0, #1
 428              	.LVL36:
 429 0008 FFF7FEFF 		bl	GreenLED_Write
 430              	.LVL37:
 431 000c 09E0     		b	.L28
 432              	.LVL38:
 433              	.L29:
 216:LEDs.c        ****   else if(Color == YELLOW_LED)
 434              		.loc 1 216 0
 435 000e 0128     		cmp	r0, #1
 436 0010 02D1     		bne	.L31
 217:LEDs.c        ****     YellowLED_Write(ON);
 437              		.loc 1 217 0
 438 0012 FFF7FEFF 		bl	YellowLED_Write
 439              	.LVL39:
 440 0016 04E0     		b	.L28
 441              	.LVL40:
 442              	.L31:
 218:LEDs.c        ****   else if(Color == RED_LED)
 443              		.loc 1 218 0
 444 0018 0228     		cmp	r0, #2
 445 001a 02D1     		bne	.L28
 219:LEDs.c        ****     RedLED_Write(ON);
 446              		.loc 1 219 0
 447 001c 0138     		subs	r0, r0, #1
 448              	.LVL41:
 449 001e FFF7FEFF 		bl	RedLED_Write
 450              	.LVL42:
 451              	.L28:
 220:LEDs.c        **** }
 452              		.loc 1 220 0
 453              		@ sp needed
 454 0022 10BD     		pop	{r4, pc}
 455              		.cfi_endproc
 456              	.LFE39:
 457              		.size	TurnON_LED, .-TurnON_LED
 458              		.section	.text.TurnOFF_LED,"ax",%progbits
 459              		.align	2
 460              		.global	TurnOFF_LED
 461              		.code	16
 462              		.thumb_func
 463              		.type	TurnOFF_LED, %function
 464              	TurnOFF_LED:
ARM GAS  C:\Users\YEHUDA~1\AppData\Local\Temp\cc5Fj9qk.s 			page 13


 465              	.LFB40:
 221:LEDs.c        **** 
 222:LEDs.c        **** 
 223:LEDs.c        **** 
 224:LEDs.c        **** /**************************************************************
 225:LEDs.c        **** * Name: TurnOFF_LED
 226:LEDs.c        **** * Parameters[in]: uint8_t Color
 227:LEDs.c        **** * Return: None
 228:LEDs.c        **** * Description: This function turns OFF Color led
 229:LEDs.c        **** 
 230:LEDs.c        **** ************************************************************/
 231:LEDs.c        **** void TurnOFF_LED(uint8_t Color)
 232:LEDs.c        **** {
 466              		.loc 1 232 0
 467              		.cfi_startproc
 468              		@ args = 0, pretend = 0, frame = 0
 469              		@ frame_needed = 0, uses_anonymous_args = 0
 470              	.LVL43:
 471 0000 10B5     		push	{r4, lr}
 472              		.cfi_def_cfa_offset 8
 473              		.cfi_offset 4, -8
 474              		.cfi_offset 14, -4
 233:LEDs.c        ****   if(Color == GREEN_LED)
 475              		.loc 1 233 0
 476 0002 0028     		cmp	r0, #0
 477 0004 02D1     		bne	.L33
 234:LEDs.c        ****     GreenLED_Write(OFF);
 478              		.loc 1 234 0
 479 0006 FFF7FEFF 		bl	GreenLED_Write
 480              	.LVL44:
 481 000a 0AE0     		b	.L32
 482              	.LVL45:
 483              	.L33:
 235:LEDs.c        ****   else if(Color == YELLOW_LED)
 484              		.loc 1 235 0
 485 000c 0128     		cmp	r0, #1
 486 000e 03D1     		bne	.L35
 236:LEDs.c        ****     YellowLED_Write(OFF);
 487              		.loc 1 236 0
 488 0010 0020     		movs	r0, #0
 489              	.LVL46:
 490 0012 FFF7FEFF 		bl	YellowLED_Write
 491              	.LVL47:
 492 0016 04E0     		b	.L32
 493              	.LVL48:
 494              	.L35:
 237:LEDs.c        ****   else if(Color == RED_LED)
 495              		.loc 1 237 0
 496 0018 0228     		cmp	r0, #2
 497 001a 02D1     		bne	.L32
 238:LEDs.c        ****     RedLED_Write(OFF);
 498              		.loc 1 238 0
 499 001c 0020     		movs	r0, #0
 500              	.LVL49:
 501 001e FFF7FEFF 		bl	RedLED_Write
 502              	.LVL50:
 503              	.L32:
ARM GAS  C:\Users\YEHUDA~1\AppData\Local\Temp\cc5Fj9qk.s 			page 14


 239:LEDs.c        **** }
 504              		.loc 1 239 0
 505              		@ sp needed
 506 0022 10BD     		pop	{r4, pc}
 507              		.cfi_endproc
 508              	.LFE40:
 509              		.size	TurnOFF_LED, .-TurnOFF_LED
 510              		.bss
 511              		.align	2
 512              		.set	.LANCHOR0,. + 0
 513              		.type	GreenLED_LocalInterval, %object
 514              		.size	GreenLED_LocalInterval, 4
 515              	GreenLED_LocalInterval:
 516 0000 00000000 		.space	4
 517              		.type	TimeSample4GreenLED, %object
 518              		.size	TimeSample4GreenLED, 4
 519              	TimeSample4GreenLED:
 520 0004 00000000 		.space	4
 521              		.type	GreenLED_Status, %object
 522              		.size	GreenLED_Status, 1
 523              	GreenLED_Status:
 524 0008 00       		.space	1
 525              		.type	GreenLED_BlinkIsSetFlag, %object
 526              		.size	GreenLED_BlinkIsSetFlag, 1
 527              	GreenLED_BlinkIsSetFlag:
 528 0009 00       		.space	1
 529 000a 0000     		.space	2
 530              		.type	YellowLED_LocalInterval, %object
 531              		.size	YellowLED_LocalInterval, 4
 532              	YellowLED_LocalInterval:
 533 000c 00000000 		.space	4
 534              		.type	TimeSample4YellowLED, %object
 535              		.size	TimeSample4YellowLED, 4
 536              	TimeSample4YellowLED:
 537 0010 00000000 		.space	4
 538              		.type	YellowLED_Status, %object
 539              		.size	YellowLED_Status, 1
 540              	YellowLED_Status:
 541 0014 00       		.space	1
 542              		.type	YellowLED_BlinkIsSetFlag, %object
 543              		.size	YellowLED_BlinkIsSetFlag, 1
 544              	YellowLED_BlinkIsSetFlag:
 545 0015 00       		.space	1
 546 0016 0000     		.space	2
 547              		.type	RedLED_LocalInterval, %object
 548              		.size	RedLED_LocalInterval, 4
 549              	RedLED_LocalInterval:
 550 0018 00000000 		.space	4
 551              		.type	TimeSample4RedLED, %object
 552              		.size	TimeSample4RedLED, 4
 553              	TimeSample4RedLED:
 554 001c 00000000 		.space	4
 555              		.type	RedLED_Status, %object
 556              		.size	RedLED_Status, 1
 557              	RedLED_Status:
 558 0020 00       		.space	1
 559              		.type	RedLED_BlinkIsSetFlag, %object
ARM GAS  C:\Users\YEHUDA~1\AppData\Local\Temp\cc5Fj9qk.s 			page 15


 560              		.size	RedLED_BlinkIsSetFlag, 1
 561              	RedLED_BlinkIsSetFlag:
 562 0021 00       		.space	1
 563              		.text
 564              	.Letext0:
 565              		.file 2 "c:\\program files (x86)\\cypress\\psoc creator\\4.2\\psoc creator\\import\\gnu\\arm\\5.4.
 566              		.file 3 "c:\\program files (x86)\\cypress\\psoc creator\\4.2\\psoc creator\\import\\gnu\\arm\\5.4.
 567              		.file 4 "Generated_Source\\PSoC4/BLE_Stack.h"
 568              		.file 5 "LEDs.h"
 569              		.file 6 "main.h"
 570              		.file 7 "Generated_Source\\PSoC4/GreenLED.h"
 571              		.file 8 "Generated_Source\\PSoC4/YellowLED.h"
 572              		.file 9 "Generated_Source\\PSoC4/RedLED.h"