ARM GAS  C:\Users\YEHUDA~1\AppData\Local\Temp\ccPZmlkl.s 			page 1


   1              		.syntax unified
   2              		.cpu cortex-m0
   3              		.fpu softvfp
   4              		.eabi_attribute 20, 1
   5              		.eabi_attribute 21, 1
   6              		.eabi_attribute 23, 3
   7              		.eabi_attribute 24, 1
   8              		.eabi_attribute 25, 1
   9              		.eabi_attribute 26, 1
  10              		.eabi_attribute 30, 1
  11              		.eabi_attribute 34, 0
  12              		.eabi_attribute 18, 4
  13              		.thumb
  14              		.syntax unified
  15              		.file	"main.c"
  16              		.text
  17              	.Ltext0:
  18              		.cfi_sections	.debug_frame
  19              		.section	.text.Init,"ax",%progbits
  20              		.align	2
  21              		.global	Init
  22              		.code	16
  23              		.thumb_func
  24              		.type	Init, %function
  25              	Init:
  26              	.LFB35:
  27              		.file 1 "main.c"
   1:main.c        **** /* ========================================
   2:main.c        ****  *
   3:main.c        ****  * Copyright Yehuda Ben Chaim, 2018
   4:main.c        ****  * All Rights Reserved
   5:main.c        ****  * UNPUBLISHED, LICENSED SOFTWARE.
   6:main.c        ****  *
   7:main.c        ****  * CONFIDENTIAL AND PROPRIETARY INFORMATION
   8:main.c        ****  * WHICH IS THE PROPERTY OF Yehuda Ben Chaim.
   9:main.c        ****  *
  10:main.c        ****  * ========================================
  11:main.c        **** */
  12:main.c        **** 
  13:main.c        **** /**** Includes *****************************************/
  14:main.c        **** 
  15:main.c        **** #include "project.h"
  16:main.c        **** #include "iprintf.h"
  17:main.c        **** #include "BLE_Applications.h"
  18:main.c        **** 
  19:main.c        **** /**** Private functions decleration *******************/
  20:main.c        **** void Init(void);
  21:main.c        **** 
  22:main.c        **** 
  23:main.c        **** 
  24:main.c        **** 
  25:main.c        **** 
  26:main.c        **** /**** Private functions *******************************/
  27:main.c        **** 
  28:main.c        **** /*************************************************************
  29:main.c        **** * Name: Init
  30:main.c        **** * Parameters[in]: None
ARM GAS  C:\Users\YEHUDA~1\AppData\Local\Temp\ccPZmlkl.s 			page 2


  31:main.c        **** * Return: None
  32:main.c        **** * Description: This fuction contains all of the init functions
  33:main.c        **** *              and the starts of all of the components
  34:main.c        **** 
  35:main.c        **** ************************************************************/
  36:main.c        **** void Init(void)
  37:main.c        **** {
  28              		.loc 1 37 0
  29              		.cfi_startproc
  30              		@ args = 0, pretend = 0, frame = 0
  31              		@ frame_needed = 0, uses_anonymous_args = 0
  32 0000 10B5     		push	{r4, lr}
  33              		.cfi_def_cfa_offset 8
  34              		.cfi_offset 4, -8
  35              		.cfi_offset 14, -4
  38:main.c        ****     SCB_1_Start();
  36              		.loc 1 38 0
  37 0002 FFF7FEFF 		bl	SCB_1_Start
  38              	.LVL0:
  39:main.c        ****     CyBle_Start(CustomEventHandler);
  39              		.loc 1 39 0
  40 0006 0248     		ldr	r0, .L2
  41 0008 FFF7FEFF 		bl	CyBle_Start
  42              	.LVL1:
  40:main.c        ****     CyGlobalIntEnable; /* Enable global interrupts. */
  43              		.loc 1 40 0
  44              		.syntax divided
  45              	@ 40 "main.c" 1
  46 000c 62B6     		CPSIE   i
  47              	@ 0 "" 2
  41:main.c        **** }
  48              		.loc 1 41 0
  49              		.thumb
  50              		.syntax unified
  51              		@ sp needed
  52 000e 10BD     		pop	{r4, pc}
  53              	.L3:
  54              		.align	2
  55              	.L2:
  56 0010 00000000 		.word	CustomEventHandler
  57              		.cfi_endproc
  58              	.LFE35:
  59              		.size	Init, .-Init
  60              		.section	.text.main,"ax",%progbits
  61              		.align	2
  62              		.global	main
  63              		.code	16
  64              		.thumb_func
  65              		.type	main, %function
  66              	main:
  67              	.LFB36:
  42:main.c        **** 
  43:main.c        **** 
  44:main.c        **** 
  45:main.c        **** int main(void)
  46:main.c        **** {
  68              		.loc 1 46 0
ARM GAS  C:\Users\YEHUDA~1\AppData\Local\Temp\ccPZmlkl.s 			page 3


  69              		.cfi_startproc
  70              		@ Volatile: function does not return.
  71              		@ args = 0, pretend = 0, frame = 0
  72              		@ frame_needed = 0, uses_anonymous_args = 0
  73 0000 10B5     		push	{r4, lr}
  74              		.cfi_def_cfa_offset 8
  75              		.cfi_offset 4, -8
  76              		.cfi_offset 14, -4
  47:main.c        ****     Init();
  77              		.loc 1 47 0
  78 0002 FFF7FEFF 		bl	Init
  79              	.LVL2:
  80              	.L5:
  48:main.c        ****     
  49:main.c        ****     for(;;)
  50:main.c        ****     {
  51:main.c        ****         CyBle_ProcessEvents();
  81              		.loc 1 51 0 discriminator 1
  82 0006 FFF7FEFF 		bl	CyBle_ProcessEvents
  83              	.LVL3:
  84 000a FCE7     		b	.L5
  85              		.cfi_endproc
  86              	.LFE36:
  87              		.size	main, .-main
  88              		.text
  89              	.Letext0:
  90              		.file 2 "Generated_Source\\PSoC4/SCB_1.h"
  91              		.file 3 "Generated_Source\\PSoC4/BLE.h"
  92              		.file 4 "Generated_Source\\PSoC4/BLE_Stack.h"