ARM GAS  C:\Users\YEHUDA~1\AppData\Local\Temp\cccPtSxq.s 			page 1


   1              		.syntax unified
   2              		.cpu cortex-m0
   3              		.fpu softvfp
   4              		.eabi_attribute 20, 1
   5              		.eabi_attribute 21, 1
   6              		.eabi_attribute 23, 3
   7              		.eabi_attribute 24, 1
   8              		.eabi_attribute 25, 1
   9              		.eabi_attribute 26, 1
  10              		.eabi_attribute 30, 1
  11              		.eabi_attribute 34, 0
  12              		.eabi_attribute 18, 4
  13              		.thumb
  14              		.syntax unified
  15              		.file	"OutBeforeDown_ISR.c"
  16              		.text
  17              	.Ltext0:
  18              		.cfi_sections	.debug_frame
  19              		.section	.text.OutBeforeDown_ISR_SetVector,"ax",%progbits
  20              		.align	2
  21              		.global	OutBeforeDown_ISR_SetVector
  22              		.code	16
  23              		.thumb_func
  24              		.type	OutBeforeDown_ISR_SetVector, %function
  25              	OutBeforeDown_ISR_SetVector:
  26              	.LFB39:
  27              		.file 1 "Generated_Source\\PSoC4\\OutBeforeDown_ISR.c"
   1:Generated_Source\PSoC4/OutBeforeDown_ISR.c **** /*******************************************************************************
   2:Generated_Source\PSoC4/OutBeforeDown_ISR.c **** * File Name: OutBeforeDown_ISR.c  
   3:Generated_Source\PSoC4/OutBeforeDown_ISR.c **** * Version 1.70
   4:Generated_Source\PSoC4/OutBeforeDown_ISR.c **** *
   5:Generated_Source\PSoC4/OutBeforeDown_ISR.c **** *  Description:
   6:Generated_Source\PSoC4/OutBeforeDown_ISR.c **** *   API for controlling the state of an interrupt.
   7:Generated_Source\PSoC4/OutBeforeDown_ISR.c **** *
   8:Generated_Source\PSoC4/OutBeforeDown_ISR.c **** *
   9:Generated_Source\PSoC4/OutBeforeDown_ISR.c **** *  Note:
  10:Generated_Source\PSoC4/OutBeforeDown_ISR.c **** *
  11:Generated_Source\PSoC4/OutBeforeDown_ISR.c **** ********************************************************************************
  12:Generated_Source\PSoC4/OutBeforeDown_ISR.c **** * Copyright 2008-2015, Cypress Semiconductor Corporation.  All rights reserved.
  13:Generated_Source\PSoC4/OutBeforeDown_ISR.c **** * You may use this file only in accordance with the license, terms, conditions, 
  14:Generated_Source\PSoC4/OutBeforeDown_ISR.c **** * disclaimers, and limitations in the end user license agreement accompanying 
  15:Generated_Source\PSoC4/OutBeforeDown_ISR.c **** * the software package with which this file was provided.
  16:Generated_Source\PSoC4/OutBeforeDown_ISR.c **** *******************************************************************************/
  17:Generated_Source\PSoC4/OutBeforeDown_ISR.c **** 
  18:Generated_Source\PSoC4/OutBeforeDown_ISR.c **** 
  19:Generated_Source\PSoC4/OutBeforeDown_ISR.c **** #include <cydevice_trm.h>
  20:Generated_Source\PSoC4/OutBeforeDown_ISR.c **** #include <CyLib.h>
  21:Generated_Source\PSoC4/OutBeforeDown_ISR.c **** #include <OutBeforeDown_ISR.h>
  22:Generated_Source\PSoC4/OutBeforeDown_ISR.c **** #include "cyapicallbacks.h"
  23:Generated_Source\PSoC4/OutBeforeDown_ISR.c **** 
  24:Generated_Source\PSoC4/OutBeforeDown_ISR.c **** #if !defined(OutBeforeDown_ISR__REMOVED) /* Check for removal by optimization */
  25:Generated_Source\PSoC4/OutBeforeDown_ISR.c **** 
  26:Generated_Source\PSoC4/OutBeforeDown_ISR.c **** /*******************************************************************************
  27:Generated_Source\PSoC4/OutBeforeDown_ISR.c **** *  Place your includes, defines and code here 
  28:Generated_Source\PSoC4/OutBeforeDown_ISR.c **** ********************************************************************************/
  29:Generated_Source\PSoC4/OutBeforeDown_ISR.c **** /* `#START OutBeforeDown_ISR_intc` */
  30:Generated_Source\PSoC4/OutBeforeDown_ISR.c **** 
ARM GAS  C:\Users\YEHUDA~1\AppData\Local\Temp\cccPtSxq.s 			page 2


  31:Generated_Source\PSoC4/OutBeforeDown_ISR.c **** /* `#END` */
  32:Generated_Source\PSoC4/OutBeforeDown_ISR.c **** 
  33:Generated_Source\PSoC4/OutBeforeDown_ISR.c **** extern cyisraddress CyRamVectors[CYINT_IRQ_BASE + CY_NUM_INTERRUPTS];
  34:Generated_Source\PSoC4/OutBeforeDown_ISR.c **** 
  35:Generated_Source\PSoC4/OutBeforeDown_ISR.c **** /* Declared in startup, used to set unused interrupts to. */
  36:Generated_Source\PSoC4/OutBeforeDown_ISR.c **** CY_ISR_PROTO(IntDefaultHandler);
  37:Generated_Source\PSoC4/OutBeforeDown_ISR.c **** 
  38:Generated_Source\PSoC4/OutBeforeDown_ISR.c **** 
  39:Generated_Source\PSoC4/OutBeforeDown_ISR.c **** /*******************************************************************************
  40:Generated_Source\PSoC4/OutBeforeDown_ISR.c **** * Function Name: OutBeforeDown_ISR_Start
  41:Generated_Source\PSoC4/OutBeforeDown_ISR.c **** ********************************************************************************
  42:Generated_Source\PSoC4/OutBeforeDown_ISR.c **** *
  43:Generated_Source\PSoC4/OutBeforeDown_ISR.c **** * Summary:
  44:Generated_Source\PSoC4/OutBeforeDown_ISR.c **** *  Set up the interrupt and enable it. This function disables the interrupt, 
  45:Generated_Source\PSoC4/OutBeforeDown_ISR.c **** *  sets the default interrupt vector, sets the priority from the value in the
  46:Generated_Source\PSoC4/OutBeforeDown_ISR.c **** *  Design Wide Resources Interrupt Editor, then enables the interrupt to the 
  47:Generated_Source\PSoC4/OutBeforeDown_ISR.c **** *  interrupt controller.
  48:Generated_Source\PSoC4/OutBeforeDown_ISR.c **** *
  49:Generated_Source\PSoC4/OutBeforeDown_ISR.c **** * Parameters:  
  50:Generated_Source\PSoC4/OutBeforeDown_ISR.c **** *   None
  51:Generated_Source\PSoC4/OutBeforeDown_ISR.c **** *
  52:Generated_Source\PSoC4/OutBeforeDown_ISR.c **** * Return:
  53:Generated_Source\PSoC4/OutBeforeDown_ISR.c **** *   None
  54:Generated_Source\PSoC4/OutBeforeDown_ISR.c **** *
  55:Generated_Source\PSoC4/OutBeforeDown_ISR.c **** *******************************************************************************/
  56:Generated_Source\PSoC4/OutBeforeDown_ISR.c **** void OutBeforeDown_ISR_Start(void)
  57:Generated_Source\PSoC4/OutBeforeDown_ISR.c **** {
  58:Generated_Source\PSoC4/OutBeforeDown_ISR.c ****     /* For all we know the interrupt is active. */
  59:Generated_Source\PSoC4/OutBeforeDown_ISR.c ****     OutBeforeDown_ISR_Disable();
  60:Generated_Source\PSoC4/OutBeforeDown_ISR.c **** 
  61:Generated_Source\PSoC4/OutBeforeDown_ISR.c ****     /* Set the ISR to point to the OutBeforeDown_ISR Interrupt. */
  62:Generated_Source\PSoC4/OutBeforeDown_ISR.c ****     OutBeforeDown_ISR_SetVector(&OutBeforeDown_ISR_Interrupt);
  63:Generated_Source\PSoC4/OutBeforeDown_ISR.c **** 
  64:Generated_Source\PSoC4/OutBeforeDown_ISR.c ****     /* Set the priority. */
  65:Generated_Source\PSoC4/OutBeforeDown_ISR.c ****     OutBeforeDown_ISR_SetPriority((uint8)OutBeforeDown_ISR_INTC_PRIOR_NUMBER);
  66:Generated_Source\PSoC4/OutBeforeDown_ISR.c **** 
  67:Generated_Source\PSoC4/OutBeforeDown_ISR.c ****     /* Enable it. */
  68:Generated_Source\PSoC4/OutBeforeDown_ISR.c ****     OutBeforeDown_ISR_Enable();
  69:Generated_Source\PSoC4/OutBeforeDown_ISR.c **** }
  70:Generated_Source\PSoC4/OutBeforeDown_ISR.c **** 
  71:Generated_Source\PSoC4/OutBeforeDown_ISR.c **** 
  72:Generated_Source\PSoC4/OutBeforeDown_ISR.c **** /*******************************************************************************
  73:Generated_Source\PSoC4/OutBeforeDown_ISR.c **** * Function Name: OutBeforeDown_ISR_StartEx
  74:Generated_Source\PSoC4/OutBeforeDown_ISR.c **** ********************************************************************************
  75:Generated_Source\PSoC4/OutBeforeDown_ISR.c **** *
  76:Generated_Source\PSoC4/OutBeforeDown_ISR.c **** * Summary:
  77:Generated_Source\PSoC4/OutBeforeDown_ISR.c **** *  Sets up the interrupt and enables it. This function disables the interrupt,
  78:Generated_Source\PSoC4/OutBeforeDown_ISR.c **** *  sets the interrupt vector based on the address passed in, sets the priority 
  79:Generated_Source\PSoC4/OutBeforeDown_ISR.c **** *  from the value in the Design Wide Resources Interrupt Editor, then enables 
  80:Generated_Source\PSoC4/OutBeforeDown_ISR.c **** *  the interrupt to the interrupt controller.
  81:Generated_Source\PSoC4/OutBeforeDown_ISR.c **** *  
  82:Generated_Source\PSoC4/OutBeforeDown_ISR.c **** *  When defining ISR functions, the CY_ISR and CY_ISR_PROTO macros should be 
  83:Generated_Source\PSoC4/OutBeforeDown_ISR.c **** *  used to provide consistent definition across compilers:
  84:Generated_Source\PSoC4/OutBeforeDown_ISR.c **** *  
  85:Generated_Source\PSoC4/OutBeforeDown_ISR.c **** *  Function definition example:
  86:Generated_Source\PSoC4/OutBeforeDown_ISR.c **** *   CY_ISR(MyISR)
  87:Generated_Source\PSoC4/OutBeforeDown_ISR.c **** *   {
ARM GAS  C:\Users\YEHUDA~1\AppData\Local\Temp\cccPtSxq.s 			page 3


  88:Generated_Source\PSoC4/OutBeforeDown_ISR.c **** *   }
  89:Generated_Source\PSoC4/OutBeforeDown_ISR.c **** *   Function prototype example:
  90:Generated_Source\PSoC4/OutBeforeDown_ISR.c **** *   CY_ISR_PROTO(MyISR);
  91:Generated_Source\PSoC4/OutBeforeDown_ISR.c **** *
  92:Generated_Source\PSoC4/OutBeforeDown_ISR.c **** * Parameters:  
  93:Generated_Source\PSoC4/OutBeforeDown_ISR.c **** *   address: Address of the ISR to set in the interrupt vector table.
  94:Generated_Source\PSoC4/OutBeforeDown_ISR.c **** *
  95:Generated_Source\PSoC4/OutBeforeDown_ISR.c **** * Return:
  96:Generated_Source\PSoC4/OutBeforeDown_ISR.c **** *   None
  97:Generated_Source\PSoC4/OutBeforeDown_ISR.c **** *
  98:Generated_Source\PSoC4/OutBeforeDown_ISR.c **** *******************************************************************************/
  99:Generated_Source\PSoC4/OutBeforeDown_ISR.c **** void OutBeforeDown_ISR_StartEx(cyisraddress address)
 100:Generated_Source\PSoC4/OutBeforeDown_ISR.c **** {
 101:Generated_Source\PSoC4/OutBeforeDown_ISR.c ****     /* For all we know the interrupt is active. */
 102:Generated_Source\PSoC4/OutBeforeDown_ISR.c ****     OutBeforeDown_ISR_Disable();
 103:Generated_Source\PSoC4/OutBeforeDown_ISR.c **** 
 104:Generated_Source\PSoC4/OutBeforeDown_ISR.c ****     /* Set the ISR to point to the OutBeforeDown_ISR Interrupt. */
 105:Generated_Source\PSoC4/OutBeforeDown_ISR.c ****     OutBeforeDown_ISR_SetVector(address);
 106:Generated_Source\PSoC4/OutBeforeDown_ISR.c **** 
 107:Generated_Source\PSoC4/OutBeforeDown_ISR.c ****     /* Set the priority. */
 108:Generated_Source\PSoC4/OutBeforeDown_ISR.c ****     OutBeforeDown_ISR_SetPriority((uint8)OutBeforeDown_ISR_INTC_PRIOR_NUMBER);
 109:Generated_Source\PSoC4/OutBeforeDown_ISR.c **** 
 110:Generated_Source\PSoC4/OutBeforeDown_ISR.c ****     /* Enable it. */
 111:Generated_Source\PSoC4/OutBeforeDown_ISR.c ****     OutBeforeDown_ISR_Enable();
 112:Generated_Source\PSoC4/OutBeforeDown_ISR.c **** }
 113:Generated_Source\PSoC4/OutBeforeDown_ISR.c **** 
 114:Generated_Source\PSoC4/OutBeforeDown_ISR.c **** 
 115:Generated_Source\PSoC4/OutBeforeDown_ISR.c **** /*******************************************************************************
 116:Generated_Source\PSoC4/OutBeforeDown_ISR.c **** * Function Name: OutBeforeDown_ISR_Stop
 117:Generated_Source\PSoC4/OutBeforeDown_ISR.c **** ********************************************************************************
 118:Generated_Source\PSoC4/OutBeforeDown_ISR.c **** *
 119:Generated_Source\PSoC4/OutBeforeDown_ISR.c **** * Summary:
 120:Generated_Source\PSoC4/OutBeforeDown_ISR.c **** *   Disables and removes the interrupt.
 121:Generated_Source\PSoC4/OutBeforeDown_ISR.c **** *
 122:Generated_Source\PSoC4/OutBeforeDown_ISR.c **** * Parameters:  
 123:Generated_Source\PSoC4/OutBeforeDown_ISR.c **** *   None
 124:Generated_Source\PSoC4/OutBeforeDown_ISR.c **** *
 125:Generated_Source\PSoC4/OutBeforeDown_ISR.c **** * Return:
 126:Generated_Source\PSoC4/OutBeforeDown_ISR.c **** *   None
 127:Generated_Source\PSoC4/OutBeforeDown_ISR.c **** *
 128:Generated_Source\PSoC4/OutBeforeDown_ISR.c **** *******************************************************************************/
 129:Generated_Source\PSoC4/OutBeforeDown_ISR.c **** void OutBeforeDown_ISR_Stop(void)
 130:Generated_Source\PSoC4/OutBeforeDown_ISR.c **** {
 131:Generated_Source\PSoC4/OutBeforeDown_ISR.c ****     /* Disable this interrupt. */
 132:Generated_Source\PSoC4/OutBeforeDown_ISR.c ****     OutBeforeDown_ISR_Disable();
 133:Generated_Source\PSoC4/OutBeforeDown_ISR.c **** 
 134:Generated_Source\PSoC4/OutBeforeDown_ISR.c ****     /* Set the ISR to point to the passive one. */
 135:Generated_Source\PSoC4/OutBeforeDown_ISR.c ****     OutBeforeDown_ISR_SetVector(&IntDefaultHandler);
 136:Generated_Source\PSoC4/OutBeforeDown_ISR.c **** }
 137:Generated_Source\PSoC4/OutBeforeDown_ISR.c **** 
 138:Generated_Source\PSoC4/OutBeforeDown_ISR.c **** 
 139:Generated_Source\PSoC4/OutBeforeDown_ISR.c **** /*******************************************************************************
 140:Generated_Source\PSoC4/OutBeforeDown_ISR.c **** * Function Name: OutBeforeDown_ISR_Interrupt
 141:Generated_Source\PSoC4/OutBeforeDown_ISR.c **** ********************************************************************************
 142:Generated_Source\PSoC4/OutBeforeDown_ISR.c **** *
 143:Generated_Source\PSoC4/OutBeforeDown_ISR.c **** * Summary:
 144:Generated_Source\PSoC4/OutBeforeDown_ISR.c **** *   The default Interrupt Service Routine for OutBeforeDown_ISR.
ARM GAS  C:\Users\YEHUDA~1\AppData\Local\Temp\cccPtSxq.s 			page 4


 145:Generated_Source\PSoC4/OutBeforeDown_ISR.c **** *
 146:Generated_Source\PSoC4/OutBeforeDown_ISR.c **** *   Add custom code between the START and END comments to keep the next version
 147:Generated_Source\PSoC4/OutBeforeDown_ISR.c **** *   of this file from over-writing your code.
 148:Generated_Source\PSoC4/OutBeforeDown_ISR.c **** *
 149:Generated_Source\PSoC4/OutBeforeDown_ISR.c **** *   Note You may use either the default ISR by using this API, or you may define
 150:Generated_Source\PSoC4/OutBeforeDown_ISR.c **** *   your own separate ISR through ISR_StartEx().
 151:Generated_Source\PSoC4/OutBeforeDown_ISR.c **** *
 152:Generated_Source\PSoC4/OutBeforeDown_ISR.c **** * Parameters:  
 153:Generated_Source\PSoC4/OutBeforeDown_ISR.c **** *   None
 154:Generated_Source\PSoC4/OutBeforeDown_ISR.c **** *
 155:Generated_Source\PSoC4/OutBeforeDown_ISR.c **** * Return:
 156:Generated_Source\PSoC4/OutBeforeDown_ISR.c **** *   None
 157:Generated_Source\PSoC4/OutBeforeDown_ISR.c **** *
 158:Generated_Source\PSoC4/OutBeforeDown_ISR.c **** *******************************************************************************/
 159:Generated_Source\PSoC4/OutBeforeDown_ISR.c **** CY_ISR(OutBeforeDown_ISR_Interrupt)
 160:Generated_Source\PSoC4/OutBeforeDown_ISR.c **** {
 161:Generated_Source\PSoC4/OutBeforeDown_ISR.c ****     #ifdef OutBeforeDown_ISR_INTERRUPT_INTERRUPT_CALLBACK
 162:Generated_Source\PSoC4/OutBeforeDown_ISR.c ****         OutBeforeDown_ISR_Interrupt_InterruptCallback();
 163:Generated_Source\PSoC4/OutBeforeDown_ISR.c ****     #endif /* OutBeforeDown_ISR_INTERRUPT_INTERRUPT_CALLBACK */ 
 164:Generated_Source\PSoC4/OutBeforeDown_ISR.c **** 
 165:Generated_Source\PSoC4/OutBeforeDown_ISR.c ****     /*  Place your Interrupt code here. */
 166:Generated_Source\PSoC4/OutBeforeDown_ISR.c ****     /* `#START OutBeforeDown_ISR_Interrupt` */
 167:Generated_Source\PSoC4/OutBeforeDown_ISR.c ****         iprintf("Interrupt!!!!!!\n\r");
 168:Generated_Source\PSoC4/OutBeforeDown_ISR.c ****       OutBeforeDown_ISR_ClearPending();
 169:Generated_Source\PSoC4/OutBeforeDown_ISR.c ****       OutBeforeDown_ClearInterrupt();
 170:Generated_Source\PSoC4/OutBeforeDown_ISR.c ****         CyDelay(1000);
 171:Generated_Source\PSoC4/OutBeforeDown_ISR.c ****         
 172:Generated_Source\PSoC4/OutBeforeDown_ISR.c ****     /* `#END` */
 173:Generated_Source\PSoC4/OutBeforeDown_ISR.c **** }
 174:Generated_Source\PSoC4/OutBeforeDown_ISR.c **** 
 175:Generated_Source\PSoC4/OutBeforeDown_ISR.c **** 
 176:Generated_Source\PSoC4/OutBeforeDown_ISR.c **** /*******************************************************************************
 177:Generated_Source\PSoC4/OutBeforeDown_ISR.c **** * Function Name: OutBeforeDown_ISR_SetVector
 178:Generated_Source\PSoC4/OutBeforeDown_ISR.c **** ********************************************************************************
 179:Generated_Source\PSoC4/OutBeforeDown_ISR.c **** *
 180:Generated_Source\PSoC4/OutBeforeDown_ISR.c **** * Summary:
 181:Generated_Source\PSoC4/OutBeforeDown_ISR.c **** *   Change the ISR vector for the Interrupt. Note calling OutBeforeDown_ISR_Start
 182:Generated_Source\PSoC4/OutBeforeDown_ISR.c **** *   will override any effect this method would have had. To set the vector 
 183:Generated_Source\PSoC4/OutBeforeDown_ISR.c **** *   before the component has been started use OutBeforeDown_ISR_StartEx instead.
 184:Generated_Source\PSoC4/OutBeforeDown_ISR.c **** * 
 185:Generated_Source\PSoC4/OutBeforeDown_ISR.c **** *   When defining ISR functions, the CY_ISR and CY_ISR_PROTO macros should be 
 186:Generated_Source\PSoC4/OutBeforeDown_ISR.c **** *   used to provide consistent definition across compilers:
 187:Generated_Source\PSoC4/OutBeforeDown_ISR.c **** *
 188:Generated_Source\PSoC4/OutBeforeDown_ISR.c **** *   Function definition example:
 189:Generated_Source\PSoC4/OutBeforeDown_ISR.c **** *   CY_ISR(MyISR)
 190:Generated_Source\PSoC4/OutBeforeDown_ISR.c **** *   {
 191:Generated_Source\PSoC4/OutBeforeDown_ISR.c **** *   }
 192:Generated_Source\PSoC4/OutBeforeDown_ISR.c **** *
 193:Generated_Source\PSoC4/OutBeforeDown_ISR.c **** *   Function prototype example:
 194:Generated_Source\PSoC4/OutBeforeDown_ISR.c **** *     CY_ISR_PROTO(MyISR);
 195:Generated_Source\PSoC4/OutBeforeDown_ISR.c **** *
 196:Generated_Source\PSoC4/OutBeforeDown_ISR.c **** * Parameters:
 197:Generated_Source\PSoC4/OutBeforeDown_ISR.c **** *   address: Address of the ISR to set in the interrupt vector table.
 198:Generated_Source\PSoC4/OutBeforeDown_ISR.c **** *
 199:Generated_Source\PSoC4/OutBeforeDown_ISR.c **** * Return:
 200:Generated_Source\PSoC4/OutBeforeDown_ISR.c **** *   None
 201:Generated_Source\PSoC4/OutBeforeDown_ISR.c **** *
ARM GAS  C:\Users\YEHUDA~1\AppData\Local\Temp\cccPtSxq.s 			page 5


 202:Generated_Source\PSoC4/OutBeforeDown_ISR.c **** *******************************************************************************/
 203:Generated_Source\PSoC4/OutBeforeDown_ISR.c **** void OutBeforeDown_ISR_SetVector(cyisraddress address)
 204:Generated_Source\PSoC4/OutBeforeDown_ISR.c **** {
  28              		.loc 1 204 0
  29              		.cfi_startproc
  30              		@ args = 0, pretend = 0, frame = 0
  31              		@ frame_needed = 0, uses_anonymous_args = 0
  32              		@ link register save eliminated.
  33              	.LVL0:
 205:Generated_Source\PSoC4/OutBeforeDown_ISR.c ****     CyRamVectors[CYINT_IRQ_BASE + OutBeforeDown_ISR__INTC_NUMBER] = address;
  34              		.loc 1 205 0
  35 0000 014B     		ldr	r3, .L2
  36 0002 9864     		str	r0, [r3, #72]
 206:Generated_Source\PSoC4/OutBeforeDown_ISR.c **** }
  37              		.loc 1 206 0
  38              		@ sp needed
  39 0004 7047     		bx	lr
  40              	.L3:
  41 0006 C046     		.align	2
  42              	.L2:
  43 0008 00000000 		.word	CyRamVectors
  44              		.cfi_endproc
  45              	.LFE39:
  46              		.size	OutBeforeDown_ISR_SetVector, .-OutBeforeDown_ISR_SetVector
  47              		.section	.text.OutBeforeDown_ISR_GetVector,"ax",%progbits
  48              		.align	2
  49              		.global	OutBeforeDown_ISR_GetVector
  50              		.code	16
  51              		.thumb_func
  52              		.type	OutBeforeDown_ISR_GetVector, %function
  53              	OutBeforeDown_ISR_GetVector:
  54              	.LFB40:
 207:Generated_Source\PSoC4/OutBeforeDown_ISR.c **** 
 208:Generated_Source\PSoC4/OutBeforeDown_ISR.c **** 
 209:Generated_Source\PSoC4/OutBeforeDown_ISR.c **** /*******************************************************************************
 210:Generated_Source\PSoC4/OutBeforeDown_ISR.c **** * Function Name: OutBeforeDown_ISR_GetVector
 211:Generated_Source\PSoC4/OutBeforeDown_ISR.c **** ********************************************************************************
 212:Generated_Source\PSoC4/OutBeforeDown_ISR.c **** *
 213:Generated_Source\PSoC4/OutBeforeDown_ISR.c **** * Summary:
 214:Generated_Source\PSoC4/OutBeforeDown_ISR.c **** *   Gets the "address" of the current ISR vector for the Interrupt.
 215:Generated_Source\PSoC4/OutBeforeDown_ISR.c **** *
 216:Generated_Source\PSoC4/OutBeforeDown_ISR.c **** * Parameters:
 217:Generated_Source\PSoC4/OutBeforeDown_ISR.c **** *   None
 218:Generated_Source\PSoC4/OutBeforeDown_ISR.c **** *
 219:Generated_Source\PSoC4/OutBeforeDown_ISR.c **** * Return:
 220:Generated_Source\PSoC4/OutBeforeDown_ISR.c **** *   Address of the ISR in the interrupt vector table.
 221:Generated_Source\PSoC4/OutBeforeDown_ISR.c **** *
 222:Generated_Source\PSoC4/OutBeforeDown_ISR.c **** *******************************************************************************/
 223:Generated_Source\PSoC4/OutBeforeDown_ISR.c **** cyisraddress OutBeforeDown_ISR_GetVector(void)
 224:Generated_Source\PSoC4/OutBeforeDown_ISR.c **** {
  55              		.loc 1 224 0
  56              		.cfi_startproc
  57              		@ args = 0, pretend = 0, frame = 0
  58              		@ frame_needed = 0, uses_anonymous_args = 0
  59              		@ link register save eliminated.
 225:Generated_Source\PSoC4/OutBeforeDown_ISR.c ****     return CyRamVectors[CYINT_IRQ_BASE + OutBeforeDown_ISR__INTC_NUMBER];
  60              		.loc 1 225 0
ARM GAS  C:\Users\YEHUDA~1\AppData\Local\Temp\cccPtSxq.s 			page 6


  61 0000 014B     		ldr	r3, .L5
  62 0002 986C     		ldr	r0, [r3, #72]
 226:Generated_Source\PSoC4/OutBeforeDown_ISR.c **** }
  63              		.loc 1 226 0
  64              		@ sp needed
  65 0004 7047     		bx	lr
  66              	.L6:
  67 0006 C046     		.align	2
  68              	.L5:
  69 0008 00000000 		.word	CyRamVectors
  70              		.cfi_endproc
  71              	.LFE40:
  72              		.size	OutBeforeDown_ISR_GetVector, .-OutBeforeDown_ISR_GetVector
  73              		.section	.text.OutBeforeDown_ISR_SetPriority,"ax",%progbits
  74              		.align	2
  75              		.global	OutBeforeDown_ISR_SetPriority
  76              		.code	16
  77              		.thumb_func
  78              		.type	OutBeforeDown_ISR_SetPriority, %function
  79              	OutBeforeDown_ISR_SetPriority:
  80              	.LFB41:
 227:Generated_Source\PSoC4/OutBeforeDown_ISR.c **** 
 228:Generated_Source\PSoC4/OutBeforeDown_ISR.c **** 
 229:Generated_Source\PSoC4/OutBeforeDown_ISR.c **** /*******************************************************************************
 230:Generated_Source\PSoC4/OutBeforeDown_ISR.c **** * Function Name: OutBeforeDown_ISR_SetPriority
 231:Generated_Source\PSoC4/OutBeforeDown_ISR.c **** ********************************************************************************
 232:Generated_Source\PSoC4/OutBeforeDown_ISR.c **** *
 233:Generated_Source\PSoC4/OutBeforeDown_ISR.c **** * Summary:
 234:Generated_Source\PSoC4/OutBeforeDown_ISR.c **** *   Sets the Priority of the Interrupt. 
 235:Generated_Source\PSoC4/OutBeforeDown_ISR.c **** *
 236:Generated_Source\PSoC4/OutBeforeDown_ISR.c **** *   Note calling OutBeforeDown_ISR_Start or OutBeforeDown_ISR_StartEx will 
 237:Generated_Source\PSoC4/OutBeforeDown_ISR.c **** *   override any effect this API would have had. This API should only be called
 238:Generated_Source\PSoC4/OutBeforeDown_ISR.c **** *   after OutBeforeDown_ISR_Start or OutBeforeDown_ISR_StartEx has been called. 
 239:Generated_Source\PSoC4/OutBeforeDown_ISR.c **** *   To set the initial priority for the component, use the Design-Wide Resources
 240:Generated_Source\PSoC4/OutBeforeDown_ISR.c **** *   Interrupt Editor.
 241:Generated_Source\PSoC4/OutBeforeDown_ISR.c **** *
 242:Generated_Source\PSoC4/OutBeforeDown_ISR.c **** *   Note This API has no effect on Non-maskable interrupt NMI).
 243:Generated_Source\PSoC4/OutBeforeDown_ISR.c **** *
 244:Generated_Source\PSoC4/OutBeforeDown_ISR.c **** * Parameters:
 245:Generated_Source\PSoC4/OutBeforeDown_ISR.c **** *   priority: Priority of the interrupt, 0 being the highest priority
 246:Generated_Source\PSoC4/OutBeforeDown_ISR.c **** *             PSoC 3 and PSoC 5LP: Priority is from 0 to 7.
 247:Generated_Source\PSoC4/OutBeforeDown_ISR.c **** *             PSoC 4: Priority is from 0 to 3.
 248:Generated_Source\PSoC4/OutBeforeDown_ISR.c **** *
 249:Generated_Source\PSoC4/OutBeforeDown_ISR.c **** * Return:
 250:Generated_Source\PSoC4/OutBeforeDown_ISR.c **** *   None
 251:Generated_Source\PSoC4/OutBeforeDown_ISR.c **** *
 252:Generated_Source\PSoC4/OutBeforeDown_ISR.c **** *******************************************************************************/
 253:Generated_Source\PSoC4/OutBeforeDown_ISR.c **** void OutBeforeDown_ISR_SetPriority(uint8 priority)
 254:Generated_Source\PSoC4/OutBeforeDown_ISR.c **** {
  81              		.loc 1 254 0
  82              		.cfi_startproc
  83              		@ args = 0, pretend = 0, frame = 0
  84              		@ frame_needed = 0, uses_anonymous_args = 0
  85              	.LVL1:
  86 0000 10B5     		push	{r4, lr}
  87              		.cfi_def_cfa_offset 8
  88              		.cfi_offset 4, -8
ARM GAS  C:\Users\YEHUDA~1\AppData\Local\Temp\cccPtSxq.s 			page 7


  89              		.cfi_offset 14, -4
  90 0002 0400     		movs	r4, r0
  91              	.LVL2:
 255:Generated_Source\PSoC4/OutBeforeDown_ISR.c **** 	uint8 interruptState;
 256:Generated_Source\PSoC4/OutBeforeDown_ISR.c ****     uint32 priorityOffset = ((OutBeforeDown_ISR__INTC_NUMBER % 4u) * 8u) + 6u;
 257:Generated_Source\PSoC4/OutBeforeDown_ISR.c ****     
 258:Generated_Source\PSoC4/OutBeforeDown_ISR.c **** 	interruptState = CyEnterCriticalSection();
  92              		.loc 1 258 0
  93 0004 FFF7FEFF 		bl	CyEnterCriticalSection
  94              	.LVL3:
 259:Generated_Source\PSoC4/OutBeforeDown_ISR.c ****     *OutBeforeDown_ISR_INTC_PRIOR = (*OutBeforeDown_ISR_INTC_PRIOR & (uint32)(~OutBeforeDown_ISR__I
  95              		.loc 1 259 0
  96 0008 044A     		ldr	r2, .L8
  97 000a 1168     		ldr	r1, [r2]
  98 000c 044B     		ldr	r3, .L8+4
  99 000e 0B40     		ands	r3, r1
 260:Generated_Source\PSoC4/OutBeforeDown_ISR.c ****                                     ((uint32)priority << priorityOffset);
 100              		.loc 1 260 0
 101 0010 A405     		lsls	r4, r4, #22
 259:Generated_Source\PSoC4/OutBeforeDown_ISR.c ****     *OutBeforeDown_ISR_INTC_PRIOR = (*OutBeforeDown_ISR_INTC_PRIOR & (uint32)(~OutBeforeDown_ISR__I
 102              		.loc 1 259 0
 103 0012 1C43     		orrs	r4, r3
 104 0014 1460     		str	r4, [r2]
 261:Generated_Source\PSoC4/OutBeforeDown_ISR.c **** 	CyExitCriticalSection(interruptState);
 105              		.loc 1 261 0
 106 0016 FFF7FEFF 		bl	CyExitCriticalSection
 107              	.LVL4:
 262:Generated_Source\PSoC4/OutBeforeDown_ISR.c **** }
 108              		.loc 1 262 0
 109              		@ sp needed
 110 001a 10BD     		pop	{r4, pc}
 111              	.L9:
 112              		.align	2
 113              	.L8:
 114 001c 00E400E0 		.word	-536812544
 115 0020 FFFF3FFF 		.word	-12582913
 116              		.cfi_endproc
 117              	.LFE41:
 118              		.size	OutBeforeDown_ISR_SetPriority, .-OutBeforeDown_ISR_SetPriority
 119              		.section	.text.OutBeforeDown_ISR_GetPriority,"ax",%progbits
 120              		.align	2
 121              		.global	OutBeforeDown_ISR_GetPriority
 122              		.code	16
 123              		.thumb_func
 124              		.type	OutBeforeDown_ISR_GetPriority, %function
 125              	OutBeforeDown_ISR_GetPriority:
 126              	.LFB42:
 263:Generated_Source\PSoC4/OutBeforeDown_ISR.c **** 
 264:Generated_Source\PSoC4/OutBeforeDown_ISR.c **** 
 265:Generated_Source\PSoC4/OutBeforeDown_ISR.c **** /*******************************************************************************
 266:Generated_Source\PSoC4/OutBeforeDown_ISR.c **** * Function Name: OutBeforeDown_ISR_GetPriority
 267:Generated_Source\PSoC4/OutBeforeDown_ISR.c **** ********************************************************************************
 268:Generated_Source\PSoC4/OutBeforeDown_ISR.c **** *
 269:Generated_Source\PSoC4/OutBeforeDown_ISR.c **** * Summary:
 270:Generated_Source\PSoC4/OutBeforeDown_ISR.c **** *   Gets the Priority of the Interrupt.
 271:Generated_Source\PSoC4/OutBeforeDown_ISR.c **** *
 272:Generated_Source\PSoC4/OutBeforeDown_ISR.c **** * Parameters:
ARM GAS  C:\Users\YEHUDA~1\AppData\Local\Temp\cccPtSxq.s 			page 8


 273:Generated_Source\PSoC4/OutBeforeDown_ISR.c **** *   None
 274:Generated_Source\PSoC4/OutBeforeDown_ISR.c **** *
 275:Generated_Source\PSoC4/OutBeforeDown_ISR.c **** * Return:
 276:Generated_Source\PSoC4/OutBeforeDown_ISR.c **** *   Priority of the interrupt, 0 being the highest priority
 277:Generated_Source\PSoC4/OutBeforeDown_ISR.c **** *    PSoC 3 and PSoC 5LP: Priority is from 0 to 7.
 278:Generated_Source\PSoC4/OutBeforeDown_ISR.c **** *    PSoC 4: Priority is from 0 to 3.
 279:Generated_Source\PSoC4/OutBeforeDown_ISR.c **** *
 280:Generated_Source\PSoC4/OutBeforeDown_ISR.c **** *******************************************************************************/
 281:Generated_Source\PSoC4/OutBeforeDown_ISR.c **** uint8 OutBeforeDown_ISR_GetPriority(void)
 282:Generated_Source\PSoC4/OutBeforeDown_ISR.c **** {
 127              		.loc 1 282 0
 128              		.cfi_startproc
 129              		@ args = 0, pretend = 0, frame = 0
 130              		@ frame_needed = 0, uses_anonymous_args = 0
 131              		@ link register save eliminated.
 132              	.LVL5:
 283:Generated_Source\PSoC4/OutBeforeDown_ISR.c ****     uint32 priority;
 284:Generated_Source\PSoC4/OutBeforeDown_ISR.c **** 	uint32 priorityOffset = ((OutBeforeDown_ISR__INTC_NUMBER % 4u) * 8u) + 6u;
 285:Generated_Source\PSoC4/OutBeforeDown_ISR.c **** 
 286:Generated_Source\PSoC4/OutBeforeDown_ISR.c ****     priority = (*OutBeforeDown_ISR_INTC_PRIOR & OutBeforeDown_ISR__INTC_PRIOR_MASK) >> priorityOffs
 133              		.loc 1 286 0
 134 0000 024B     		ldr	r3, .L11
 135 0002 1868     		ldr	r0, [r3]
 136 0004 800D     		lsrs	r0, r0, #22
 137              	.LVL6:
 287:Generated_Source\PSoC4/OutBeforeDown_ISR.c **** 
 288:Generated_Source\PSoC4/OutBeforeDown_ISR.c ****     return (uint8)priority;
 138              		.loc 1 288 0
 139 0006 0323     		movs	r3, #3
 140 0008 1840     		ands	r0, r3
 141              	.LVL7:
 289:Generated_Source\PSoC4/OutBeforeDown_ISR.c **** }
 142              		.loc 1 289 0
 143              		@ sp needed
 144 000a 7047     		bx	lr
 145              	.L12:
 146              		.align	2
 147              	.L11:
 148 000c 00E400E0 		.word	-536812544
 149              		.cfi_endproc
 150              	.LFE42:
 151              		.size	OutBeforeDown_ISR_GetPriority, .-OutBeforeDown_ISR_GetPriority
 152              		.section	.text.OutBeforeDown_ISR_Enable,"ax",%progbits
 153              		.align	2
 154              		.global	OutBeforeDown_ISR_Enable
 155              		.code	16
 156              		.thumb_func
 157              		.type	OutBeforeDown_ISR_Enable, %function
 158              	OutBeforeDown_ISR_Enable:
 159              	.LFB43:
 290:Generated_Source\PSoC4/OutBeforeDown_ISR.c **** 
 291:Generated_Source\PSoC4/OutBeforeDown_ISR.c **** 
 292:Generated_Source\PSoC4/OutBeforeDown_ISR.c **** /*******************************************************************************
 293:Generated_Source\PSoC4/OutBeforeDown_ISR.c **** * Function Name: OutBeforeDown_ISR_Enable
 294:Generated_Source\PSoC4/OutBeforeDown_ISR.c **** ********************************************************************************
 295:Generated_Source\PSoC4/OutBeforeDown_ISR.c **** *
 296:Generated_Source\PSoC4/OutBeforeDown_ISR.c **** * Summary:
ARM GAS  C:\Users\YEHUDA~1\AppData\Local\Temp\cccPtSxq.s 			page 9


 297:Generated_Source\PSoC4/OutBeforeDown_ISR.c **** *   Enables the interrupt to the interrupt controller. Do not call this function
 298:Generated_Source\PSoC4/OutBeforeDown_ISR.c **** *   unless ISR_Start() has been called or the functionality of the ISR_Start() 
 299:Generated_Source\PSoC4/OutBeforeDown_ISR.c **** *   function, which sets the vector and the priority, has been called.
 300:Generated_Source\PSoC4/OutBeforeDown_ISR.c **** *
 301:Generated_Source\PSoC4/OutBeforeDown_ISR.c **** * Parameters:
 302:Generated_Source\PSoC4/OutBeforeDown_ISR.c **** *   None
 303:Generated_Source\PSoC4/OutBeforeDown_ISR.c **** *
 304:Generated_Source\PSoC4/OutBeforeDown_ISR.c **** * Return:
 305:Generated_Source\PSoC4/OutBeforeDown_ISR.c **** *   None
 306:Generated_Source\PSoC4/OutBeforeDown_ISR.c **** *
 307:Generated_Source\PSoC4/OutBeforeDown_ISR.c **** *******************************************************************************/
 308:Generated_Source\PSoC4/OutBeforeDown_ISR.c **** void OutBeforeDown_ISR_Enable(void)
 309:Generated_Source\PSoC4/OutBeforeDown_ISR.c **** {
 160              		.loc 1 309 0
 161              		.cfi_startproc
 162              		@ args = 0, pretend = 0, frame = 0
 163              		@ frame_needed = 0, uses_anonymous_args = 0
 164              		@ link register save eliminated.
 310:Generated_Source\PSoC4/OutBeforeDown_ISR.c ****     /* Enable the general interrupt. */
 311:Generated_Source\PSoC4/OutBeforeDown_ISR.c ****     *OutBeforeDown_ISR_INTC_SET_EN = OutBeforeDown_ISR__INTC_MASK;
 165              		.loc 1 311 0
 166 0000 0422     		movs	r2, #4
 167 0002 014B     		ldr	r3, .L14
 168 0004 1A60     		str	r2, [r3]
 312:Generated_Source\PSoC4/OutBeforeDown_ISR.c **** }
 169              		.loc 1 312 0
 170              		@ sp needed
 171 0006 7047     		bx	lr
 172              	.L15:
 173              		.align	2
 174              	.L14:
 175 0008 00E100E0 		.word	-536813312
 176              		.cfi_endproc
 177              	.LFE43:
 178              		.size	OutBeforeDown_ISR_Enable, .-OutBeforeDown_ISR_Enable
 179              		.section	.text.OutBeforeDown_ISR_GetState,"ax",%progbits
 180              		.align	2
 181              		.global	OutBeforeDown_ISR_GetState
 182              		.code	16
 183              		.thumb_func
 184              		.type	OutBeforeDown_ISR_GetState, %function
 185              	OutBeforeDown_ISR_GetState:
 186              	.LFB44:
 313:Generated_Source\PSoC4/OutBeforeDown_ISR.c **** 
 314:Generated_Source\PSoC4/OutBeforeDown_ISR.c **** 
 315:Generated_Source\PSoC4/OutBeforeDown_ISR.c **** /*******************************************************************************
 316:Generated_Source\PSoC4/OutBeforeDown_ISR.c **** * Function Name: OutBeforeDown_ISR_GetState
 317:Generated_Source\PSoC4/OutBeforeDown_ISR.c **** ********************************************************************************
 318:Generated_Source\PSoC4/OutBeforeDown_ISR.c **** *
 319:Generated_Source\PSoC4/OutBeforeDown_ISR.c **** * Summary:
 320:Generated_Source\PSoC4/OutBeforeDown_ISR.c **** *   Gets the state (enabled, disabled) of the Interrupt.
 321:Generated_Source\PSoC4/OutBeforeDown_ISR.c **** *
 322:Generated_Source\PSoC4/OutBeforeDown_ISR.c **** * Parameters:
 323:Generated_Source\PSoC4/OutBeforeDown_ISR.c **** *   None
 324:Generated_Source\PSoC4/OutBeforeDown_ISR.c **** *
 325:Generated_Source\PSoC4/OutBeforeDown_ISR.c **** * Return:
 326:Generated_Source\PSoC4/OutBeforeDown_ISR.c **** *   1 if enabled, 0 if disabled.
ARM GAS  C:\Users\YEHUDA~1\AppData\Local\Temp\cccPtSxq.s 			page 10


 327:Generated_Source\PSoC4/OutBeforeDown_ISR.c **** *
 328:Generated_Source\PSoC4/OutBeforeDown_ISR.c **** *******************************************************************************/
 329:Generated_Source\PSoC4/OutBeforeDown_ISR.c **** uint8 OutBeforeDown_ISR_GetState(void)
 330:Generated_Source\PSoC4/OutBeforeDown_ISR.c **** {
 187              		.loc 1 330 0
 188              		.cfi_startproc
 189              		@ args = 0, pretend = 0, frame = 0
 190              		@ frame_needed = 0, uses_anonymous_args = 0
 191              		@ link register save eliminated.
 331:Generated_Source\PSoC4/OutBeforeDown_ISR.c ****     /* Get the state of the general interrupt. */
 332:Generated_Source\PSoC4/OutBeforeDown_ISR.c ****     return ((*OutBeforeDown_ISR_INTC_SET_EN & (uint32)OutBeforeDown_ISR__INTC_MASK) != 0u) ? 1u:0u;
 192              		.loc 1 332 0
 193 0000 034B     		ldr	r3, .L19
 194 0002 1B68     		ldr	r3, [r3]
 195 0004 5B07     		lsls	r3, r3, #29
 196 0006 01D5     		bpl	.L18
 197 0008 0120     		movs	r0, #1
 198 000a 00E0     		b	.L17
 199              	.L18:
 200 000c 0020     		movs	r0, #0
 201              	.L17:
 333:Generated_Source\PSoC4/OutBeforeDown_ISR.c **** }
 202              		.loc 1 333 0 discriminator 4
 203              		@ sp needed
 204 000e 7047     		bx	lr
 205              	.L20:
 206              		.align	2
 207              	.L19:
 208 0010 00E100E0 		.word	-536813312
 209              		.cfi_endproc
 210              	.LFE44:
 211              		.size	OutBeforeDown_ISR_GetState, .-OutBeforeDown_ISR_GetState
 212              		.section	.text.OutBeforeDown_ISR_Disable,"ax",%progbits
 213              		.align	2
 214              		.global	OutBeforeDown_ISR_Disable
 215              		.code	16
 216              		.thumb_func
 217              		.type	OutBeforeDown_ISR_Disable, %function
 218              	OutBeforeDown_ISR_Disable:
 219              	.LFB45:
 334:Generated_Source\PSoC4/OutBeforeDown_ISR.c **** 
 335:Generated_Source\PSoC4/OutBeforeDown_ISR.c **** 
 336:Generated_Source\PSoC4/OutBeforeDown_ISR.c **** /*******************************************************************************
 337:Generated_Source\PSoC4/OutBeforeDown_ISR.c **** * Function Name: OutBeforeDown_ISR_Disable
 338:Generated_Source\PSoC4/OutBeforeDown_ISR.c **** ********************************************************************************
 339:Generated_Source\PSoC4/OutBeforeDown_ISR.c **** *
 340:Generated_Source\PSoC4/OutBeforeDown_ISR.c **** * Summary:
 341:Generated_Source\PSoC4/OutBeforeDown_ISR.c **** *   Disables the Interrupt in the interrupt controller.
 342:Generated_Source\PSoC4/OutBeforeDown_ISR.c **** *
 343:Generated_Source\PSoC4/OutBeforeDown_ISR.c **** * Parameters:
 344:Generated_Source\PSoC4/OutBeforeDown_ISR.c **** *   None
 345:Generated_Source\PSoC4/OutBeforeDown_ISR.c **** *
 346:Generated_Source\PSoC4/OutBeforeDown_ISR.c **** * Return:
 347:Generated_Source\PSoC4/OutBeforeDown_ISR.c **** *   None
 348:Generated_Source\PSoC4/OutBeforeDown_ISR.c **** *
 349:Generated_Source\PSoC4/OutBeforeDown_ISR.c **** *******************************************************************************/
 350:Generated_Source\PSoC4/OutBeforeDown_ISR.c **** void OutBeforeDown_ISR_Disable(void)
ARM GAS  C:\Users\YEHUDA~1\AppData\Local\Temp\cccPtSxq.s 			page 11


 351:Generated_Source\PSoC4/OutBeforeDown_ISR.c **** {
 220              		.loc 1 351 0
 221              		.cfi_startproc
 222              		@ args = 0, pretend = 0, frame = 0
 223              		@ frame_needed = 0, uses_anonymous_args = 0
 224              		@ link register save eliminated.
 352:Generated_Source\PSoC4/OutBeforeDown_ISR.c ****     /* Disable the general interrupt. */
 353:Generated_Source\PSoC4/OutBeforeDown_ISR.c ****     *OutBeforeDown_ISR_INTC_CLR_EN = OutBeforeDown_ISR__INTC_MASK;
 225              		.loc 1 353 0
 226 0000 0422     		movs	r2, #4
 227 0002 014B     		ldr	r3, .L22
 228 0004 1A60     		str	r2, [r3]
 354:Generated_Source\PSoC4/OutBeforeDown_ISR.c **** }
 229              		.loc 1 354 0
 230              		@ sp needed
 231 0006 7047     		bx	lr
 232              	.L23:
 233              		.align	2
 234              	.L22:
 235 0008 80E100E0 		.word	-536813184
 236              		.cfi_endproc
 237              	.LFE45:
 238              		.size	OutBeforeDown_ISR_Disable, .-OutBeforeDown_ISR_Disable
 239              		.section	.text.OutBeforeDown_ISR_Start,"ax",%progbits
 240              		.align	2
 241              		.global	OutBeforeDown_ISR_Start
 242              		.code	16
 243              		.thumb_func
 244              		.type	OutBeforeDown_ISR_Start, %function
 245              	OutBeforeDown_ISR_Start:
 246              	.LFB35:
  57:Generated_Source\PSoC4/OutBeforeDown_ISR.c ****     /* For all we know the interrupt is active. */
 247              		.loc 1 57 0
 248              		.cfi_startproc
 249              		@ args = 0, pretend = 0, frame = 0
 250              		@ frame_needed = 0, uses_anonymous_args = 0
 251 0000 10B5     		push	{r4, lr}
 252              		.cfi_def_cfa_offset 8
 253              		.cfi_offset 4, -8
 254              		.cfi_offset 14, -4
  59:Generated_Source\PSoC4/OutBeforeDown_ISR.c **** 
 255              		.loc 1 59 0
 256 0002 FFF7FEFF 		bl	OutBeforeDown_ISR_Disable
 257              	.LVL8:
  62:Generated_Source\PSoC4/OutBeforeDown_ISR.c **** 
 258              		.loc 1 62 0
 259 0006 0448     		ldr	r0, .L25
 260 0008 FFF7FEFF 		bl	OutBeforeDown_ISR_SetVector
 261              	.LVL9:
  65:Generated_Source\PSoC4/OutBeforeDown_ISR.c **** 
 262              		.loc 1 65 0
 263 000c 0320     		movs	r0, #3
 264 000e FFF7FEFF 		bl	OutBeforeDown_ISR_SetPriority
 265              	.LVL10:
  68:Generated_Source\PSoC4/OutBeforeDown_ISR.c **** }
 266              		.loc 1 68 0
 267 0012 FFF7FEFF 		bl	OutBeforeDown_ISR_Enable
ARM GAS  C:\Users\YEHUDA~1\AppData\Local\Temp\cccPtSxq.s 			page 12


 268              	.LVL11:
  69:Generated_Source\PSoC4/OutBeforeDown_ISR.c **** 
 269              		.loc 1 69 0
 270              		@ sp needed
 271 0016 10BD     		pop	{r4, pc}
 272              	.L26:
 273              		.align	2
 274              	.L25:
 275 0018 00000000 		.word	OutBeforeDown_ISR_Interrupt
 276              		.cfi_endproc
 277              	.LFE35:
 278              		.size	OutBeforeDown_ISR_Start, .-OutBeforeDown_ISR_Start
 279              		.section	.text.OutBeforeDown_ISR_StartEx,"ax",%progbits
 280              		.align	2
 281              		.global	OutBeforeDown_ISR_StartEx
 282              		.code	16
 283              		.thumb_func
 284              		.type	OutBeforeDown_ISR_StartEx, %function
 285              	OutBeforeDown_ISR_StartEx:
 286              	.LFB36:
 100:Generated_Source\PSoC4/OutBeforeDown_ISR.c ****     /* For all we know the interrupt is active. */
 287              		.loc 1 100 0
 288              		.cfi_startproc
 289              		@ args = 0, pretend = 0, frame = 0
 290              		@ frame_needed = 0, uses_anonymous_args = 0
 291              	.LVL12:
 292 0000 10B5     		push	{r4, lr}
 293              		.cfi_def_cfa_offset 8
 294              		.cfi_offset 4, -8
 295              		.cfi_offset 14, -4
 296 0002 0400     		movs	r4, r0
 102:Generated_Source\PSoC4/OutBeforeDown_ISR.c **** 
 297              		.loc 1 102 0
 298 0004 FFF7FEFF 		bl	OutBeforeDown_ISR_Disable
 299              	.LVL13:
 105:Generated_Source\PSoC4/OutBeforeDown_ISR.c **** 
 300              		.loc 1 105 0
 301 0008 2000     		movs	r0, r4
 302 000a FFF7FEFF 		bl	OutBeforeDown_ISR_SetVector
 303              	.LVL14:
 108:Generated_Source\PSoC4/OutBeforeDown_ISR.c **** 
 304              		.loc 1 108 0
 305 000e 0320     		movs	r0, #3
 306 0010 FFF7FEFF 		bl	OutBeforeDown_ISR_SetPriority
 307              	.LVL15:
 111:Generated_Source\PSoC4/OutBeforeDown_ISR.c **** }
 308              		.loc 1 111 0
 309 0014 FFF7FEFF 		bl	OutBeforeDown_ISR_Enable
 310              	.LVL16:
 112:Generated_Source\PSoC4/OutBeforeDown_ISR.c **** 
 311              		.loc 1 112 0
 312              		@ sp needed
 313              	.LVL17:
 314 0018 10BD     		pop	{r4, pc}
 315              		.cfi_endproc
 316              	.LFE36:
 317              		.size	OutBeforeDown_ISR_StartEx, .-OutBeforeDown_ISR_StartEx
ARM GAS  C:\Users\YEHUDA~1\AppData\Local\Temp\cccPtSxq.s 			page 13


 318 001a C046     		.section	.text.OutBeforeDown_ISR_Stop,"ax",%progbits
 319              		.align	2
 320              		.global	OutBeforeDown_ISR_Stop
 321              		.code	16
 322              		.thumb_func
 323              		.type	OutBeforeDown_ISR_Stop, %function
 324              	OutBeforeDown_ISR_Stop:
 325              	.LFB37:
 130:Generated_Source\PSoC4/OutBeforeDown_ISR.c ****     /* Disable this interrupt. */
 326              		.loc 1 130 0
 327              		.cfi_startproc
 328              		@ args = 0, pretend = 0, frame = 0
 329              		@ frame_needed = 0, uses_anonymous_args = 0
 330 0000 10B5     		push	{r4, lr}
 331              		.cfi_def_cfa_offset 8
 332              		.cfi_offset 4, -8
 333              		.cfi_offset 14, -4
 132:Generated_Source\PSoC4/OutBeforeDown_ISR.c **** 
 334              		.loc 1 132 0
 335 0002 FFF7FEFF 		bl	OutBeforeDown_ISR_Disable
 336              	.LVL18:
 135:Generated_Source\PSoC4/OutBeforeDown_ISR.c **** }
 337              		.loc 1 135 0
 338 0006 0248     		ldr	r0, .L29
 339 0008 FFF7FEFF 		bl	OutBeforeDown_ISR_SetVector
 340              	.LVL19:
 136:Generated_Source\PSoC4/OutBeforeDown_ISR.c **** 
 341              		.loc 1 136 0
 342              		@ sp needed
 343 000c 10BD     		pop	{r4, pc}
 344              	.L30:
 345 000e C046     		.align	2
 346              	.L29:
 347 0010 00000000 		.word	IntDefaultHandler
 348              		.cfi_endproc
 349              	.LFE37:
 350              		.size	OutBeforeDown_ISR_Stop, .-OutBeforeDown_ISR_Stop
 351              		.section	.text.OutBeforeDown_ISR_SetPending,"ax",%progbits
 352              		.align	2
 353              		.global	OutBeforeDown_ISR_SetPending
 354              		.code	16
 355              		.thumb_func
 356              		.type	OutBeforeDown_ISR_SetPending, %function
 357              	OutBeforeDown_ISR_SetPending:
 358              	.LFB46:
 355:Generated_Source\PSoC4/OutBeforeDown_ISR.c **** 
 356:Generated_Source\PSoC4/OutBeforeDown_ISR.c **** 
 357:Generated_Source\PSoC4/OutBeforeDown_ISR.c **** /*******************************************************************************
 358:Generated_Source\PSoC4/OutBeforeDown_ISR.c **** * Function Name: OutBeforeDown_ISR_SetPending
 359:Generated_Source\PSoC4/OutBeforeDown_ISR.c **** ********************************************************************************
 360:Generated_Source\PSoC4/OutBeforeDown_ISR.c **** *
 361:Generated_Source\PSoC4/OutBeforeDown_ISR.c **** * Summary:
 362:Generated_Source\PSoC4/OutBeforeDown_ISR.c **** *   Causes the Interrupt to enter the pending state, a software method of
 363:Generated_Source\PSoC4/OutBeforeDown_ISR.c **** *   generating the interrupt.
 364:Generated_Source\PSoC4/OutBeforeDown_ISR.c **** *
 365:Generated_Source\PSoC4/OutBeforeDown_ISR.c **** * Parameters:
 366:Generated_Source\PSoC4/OutBeforeDown_ISR.c **** *   None
ARM GAS  C:\Users\YEHUDA~1\AppData\Local\Temp\cccPtSxq.s 			page 14


 367:Generated_Source\PSoC4/OutBeforeDown_ISR.c **** *
 368:Generated_Source\PSoC4/OutBeforeDown_ISR.c **** * Return:
 369:Generated_Source\PSoC4/OutBeforeDown_ISR.c **** *   None
 370:Generated_Source\PSoC4/OutBeforeDown_ISR.c **** *
 371:Generated_Source\PSoC4/OutBeforeDown_ISR.c **** * Side Effects:
 372:Generated_Source\PSoC4/OutBeforeDown_ISR.c **** *   If interrupts are enabled and the interrupt is set up properly, the ISR is
 373:Generated_Source\PSoC4/OutBeforeDown_ISR.c **** *   entered (depending on the priority of this interrupt and other pending 
 374:Generated_Source\PSoC4/OutBeforeDown_ISR.c **** *   interrupts).
 375:Generated_Source\PSoC4/OutBeforeDown_ISR.c **** *
 376:Generated_Source\PSoC4/OutBeforeDown_ISR.c **** *******************************************************************************/
 377:Generated_Source\PSoC4/OutBeforeDown_ISR.c **** void OutBeforeDown_ISR_SetPending(void)
 378:Generated_Source\PSoC4/OutBeforeDown_ISR.c **** {
 359              		.loc 1 378 0
 360              		.cfi_startproc
 361              		@ args = 0, pretend = 0, frame = 0
 362              		@ frame_needed = 0, uses_anonymous_args = 0
 363              		@ link register save eliminated.
 379:Generated_Source\PSoC4/OutBeforeDown_ISR.c ****     *OutBeforeDown_ISR_INTC_SET_PD = OutBeforeDown_ISR__INTC_MASK;
 364              		.loc 1 379 0
 365 0000 0422     		movs	r2, #4
 366 0002 014B     		ldr	r3, .L32
 367 0004 1A60     		str	r2, [r3]
 380:Generated_Source\PSoC4/OutBeforeDown_ISR.c **** }
 368              		.loc 1 380 0
 369              		@ sp needed
 370 0006 7047     		bx	lr
 371              	.L33:
 372              		.align	2
 373              	.L32:
 374 0008 00E200E0 		.word	-536813056
 375              		.cfi_endproc
 376              	.LFE46:
 377              		.size	OutBeforeDown_ISR_SetPending, .-OutBeforeDown_ISR_SetPending
 378              		.section	.text.OutBeforeDown_ISR_ClearPending,"ax",%progbits
 379              		.align	2
 380              		.global	OutBeforeDown_ISR_ClearPending
 381              		.code	16
 382              		.thumb_func
 383              		.type	OutBeforeDown_ISR_ClearPending, %function
 384              	OutBeforeDown_ISR_ClearPending:
 385              	.LFB47:
 381:Generated_Source\PSoC4/OutBeforeDown_ISR.c **** 
 382:Generated_Source\PSoC4/OutBeforeDown_ISR.c **** 
 383:Generated_Source\PSoC4/OutBeforeDown_ISR.c **** /*******************************************************************************
 384:Generated_Source\PSoC4/OutBeforeDown_ISR.c **** * Function Name: OutBeforeDown_ISR_ClearPending
 385:Generated_Source\PSoC4/OutBeforeDown_ISR.c **** ********************************************************************************
 386:Generated_Source\PSoC4/OutBeforeDown_ISR.c **** *
 387:Generated_Source\PSoC4/OutBeforeDown_ISR.c **** * Summary:
 388:Generated_Source\PSoC4/OutBeforeDown_ISR.c **** *   Clears a pending interrupt in the interrupt controller.
 389:Generated_Source\PSoC4/OutBeforeDown_ISR.c **** *
 390:Generated_Source\PSoC4/OutBeforeDown_ISR.c **** *   Note Some interrupt sources are clear-on-read and require the block 
 391:Generated_Source\PSoC4/OutBeforeDown_ISR.c **** *   interrupt/status register to be read/cleared with the appropriate block API 
 392:Generated_Source\PSoC4/OutBeforeDown_ISR.c **** *   (GPIO, UART, and so on). Otherwise the ISR will continue to remain in 
 393:Generated_Source\PSoC4/OutBeforeDown_ISR.c **** *   pending state even though the interrupt itself is cleared using this API.
 394:Generated_Source\PSoC4/OutBeforeDown_ISR.c **** *
 395:Generated_Source\PSoC4/OutBeforeDown_ISR.c **** * Parameters:
 396:Generated_Source\PSoC4/OutBeforeDown_ISR.c **** *   None
ARM GAS  C:\Users\YEHUDA~1\AppData\Local\Temp\cccPtSxq.s 			page 15


 397:Generated_Source\PSoC4/OutBeforeDown_ISR.c **** *
 398:Generated_Source\PSoC4/OutBeforeDown_ISR.c **** * Return:
 399:Generated_Source\PSoC4/OutBeforeDown_ISR.c **** *   None
 400:Generated_Source\PSoC4/OutBeforeDown_ISR.c **** *
 401:Generated_Source\PSoC4/OutBeforeDown_ISR.c **** *******************************************************************************/
 402:Generated_Source\PSoC4/OutBeforeDown_ISR.c **** void OutBeforeDown_ISR_ClearPending(void)
 403:Generated_Source\PSoC4/OutBeforeDown_ISR.c **** {
 386              		.loc 1 403 0
 387              		.cfi_startproc
 388              		@ args = 0, pretend = 0, frame = 0
 389              		@ frame_needed = 0, uses_anonymous_args = 0
 390              		@ link register save eliminated.
 404:Generated_Source\PSoC4/OutBeforeDown_ISR.c ****     *OutBeforeDown_ISR_INTC_CLR_PD = OutBeforeDown_ISR__INTC_MASK;
 391              		.loc 1 404 0
 392 0000 0422     		movs	r2, #4
 393 0002 014B     		ldr	r3, .L35
 394 0004 1A60     		str	r2, [r3]
 405:Generated_Source\PSoC4/OutBeforeDown_ISR.c **** }
 395              		.loc 1 405 0
 396              		@ sp needed
 397 0006 7047     		bx	lr
 398              	.L36:
 399              		.align	2
 400              	.L35:
 401 0008 80E200E0 		.word	-536812928
 402              		.cfi_endproc
 403              	.LFE47:
 404              		.size	OutBeforeDown_ISR_ClearPending, .-OutBeforeDown_ISR_ClearPending
 405              		.section	.text.OutBeforeDown_ISR_Interrupt,"ax",%progbits
 406              		.align	2
 407              		.global	OutBeforeDown_ISR_Interrupt
 408              		.code	16
 409              		.thumb_func
 410              		.type	OutBeforeDown_ISR_Interrupt, %function
 411              	OutBeforeDown_ISR_Interrupt:
 412              	.LFB38:
 160:Generated_Source\PSoC4/OutBeforeDown_ISR.c ****     #ifdef OutBeforeDown_ISR_INTERRUPT_INTERRUPT_CALLBACK
 413              		.loc 1 160 0
 414              		.cfi_startproc
 415              		@ args = 0, pretend = 0, frame = 0
 416              		@ frame_needed = 0, uses_anonymous_args = 0
 417 0000 10B5     		push	{r4, lr}
 418              		.cfi_def_cfa_offset 8
 419              		.cfi_offset 4, -8
 420              		.cfi_offset 14, -4
 167:Generated_Source\PSoC4/OutBeforeDown_ISR.c ****       OutBeforeDown_ISR_ClearPending();
 421              		.loc 1 167 0
 422 0002 0648     		ldr	r0, .L38
 423 0004 FFF7FEFF 		bl	iprintf
 424              	.LVL20:
 168:Generated_Source\PSoC4/OutBeforeDown_ISR.c ****       OutBeforeDown_ClearInterrupt();
 425              		.loc 1 168 0
 426 0008 FFF7FEFF 		bl	OutBeforeDown_ISR_ClearPending
 427              	.LVL21:
 169:Generated_Source\PSoC4/OutBeforeDown_ISR.c ****         CyDelay(1000);
 428              		.loc 1 169 0
 429 000c FFF7FEFF 		bl	OutBeforeDown_ClearInterrupt
ARM GAS  C:\Users\YEHUDA~1\AppData\Local\Temp\cccPtSxq.s 			page 16


 430              	.LVL22:
 170:Generated_Source\PSoC4/OutBeforeDown_ISR.c ****         
 431              		.loc 1 170 0
 432 0010 FA20     		movs	r0, #250
 433 0012 8000     		lsls	r0, r0, #2
 434 0014 FFF7FEFF 		bl	CyDelay
 435              	.LVL23:
 173:Generated_Source\PSoC4/OutBeforeDown_ISR.c **** 
 436              		.loc 1 173 0
 437              		@ sp needed
 438 0018 10BD     		pop	{r4, pc}
 439              	.L39:
 440 001a C046     		.align	2
 441              	.L38:
 442 001c 00000000 		.word	.LC4
 443              		.cfi_endproc
 444              	.LFE38:
 445              		.size	OutBeforeDown_ISR_Interrupt, .-OutBeforeDown_ISR_Interrupt
 446              		.section	.rodata.str1.4,"aMS",%progbits,1
 447              		.align	2
 448              	.LC4:
 449 0000 496E7465 		.ascii	"Interrupt!!!!!!\012\015\000"
 449      72727570 
 449      74212121 
 449      2121210A 
 449      0D00
 450              		.text
 451              	.Letext0:
 452              		.file 2 "Generated_Source\\PSoC4/cytypes.h"
 453              		.file 3 "Generated_Source\\PSoC4/CyLib.h"
 454              		.file 4 "./iprintf.h"
 455              		.file 5 "Generated_Source\\PSoC4/OutBeforeDown.h"